
C:\Users\Jerry\Desktop\Wavenumber\bunny_build\bunny_build\test\mcx947__ezh_4bit_counter\Debug\mcx947__ezh_4bit_counter.axf:     file format elf32-littlearm
C:\Users\Jerry\Desktop\Wavenumber\bunny_build\bunny_build\test\mcx947__ezh_4bit_counter\Debug\mcx947__ezh_4bit_counter.axf
architecture: armv8-m.main, flags 0x00000112:
EXEC_P, HAS_SYMS, D_PAGED
start address 0x00000301

Program Header:
    LOAD off    0x00001000 vaddr 0x00000000 paddr 0x00000000 align 2**12
         filesz 0x00004ff4 memsz 0x00004ff4 flags r-x
    LOAD off    0x00006000 vaddr 0x04000000 paddr 0x00004ff4 align 2**12
         filesz 0x00001000 memsz 0x00001000 flags rw-
    LOAD off    0x00007000 vaddr 0x20000000 paddr 0x00005ff4 align 2**12
         filesz 0x0000000c memsz 0x0000000c flags rw-
    LOAD off    0x0000000c vaddr 0x2000000c paddr 0x2000000c align 2**12
         filesz 0x00000000 memsz 0x00002344 flags rw-
private flags = 0x5000400: [Version5 EABI] [hard-float ABI]

Sections:
Idx Name          Size      VMA       LMA       File off  Algn
  0 .text         00004ff4  00000000  00000000  00001000  2**2
                  CONTENTS, ALLOC, LOAD, READONLY, CODE
  1 .data         0000000c  20000000  00005ff4  00007000  2**2
                  CONTENTS, ALLOC, LOAD, DATA
  2 .data_RAM2    00001000  04000000  00004ff4  00006000  2**2
                  CONTENTS, ALLOC, LOAD, DATA
  3 .data_RAM3    00000000  20060000  20060000  0000700c  2**2
                  CONTENTS
  4 .data_RAM4    00000000  400ba000  400ba000  0000700c  2**2
                  CONTENTS
  5 .bss          00000344  2000000c  2000000c  0000700c  2**2
                  ALLOC
  6 .uninit_RESERVED 00000000  20000000  20000000  0000700c  2**2
                  CONTENTS
  7 .noinit_RAM2  00000000  04001000  04001000  0000700c  2**2
                  CONTENTS
  8 .noinit_RAM3  00000000  20060000  20060000  0000700c  2**2
                  CONTENTS
  9 .noinit_RAM4  00000000  400ba000  400ba000  0000700c  2**2
                  CONTENTS
 10 .noinit       00000000  20000350  20000350  00000000  2**2
                  ALLOC
 11 .heap         00001000  20000350  20000350  0000700c  2**2
                  ALLOC
 12 .heap2stackfill 00001000  20001350  20001350  0000700c  2**0
                  ALLOC
 13 .stack        00000000  2005f000  2005f000  0000700c  2**2
                  CONTENTS
 14 .debug_info   0001f448  00000000  00000000  0000700c  2**0
                  CONTENTS, READONLY, DEBUGGING, OCTETS
 15 .debug_abbrev 000047a0  00000000  00000000  00026454  2**0
                  CONTENTS, READONLY, DEBUGGING, OCTETS
 16 .debug_aranges 00001548  00000000  00000000  0002abf4  2**0
                  CONTENTS, READONLY, DEBUGGING, OCTETS
 17 .debug_ranges 00001598  00000000  00000000  0002c13c  2**0
                  CONTENTS, READONLY, DEBUGGING, OCTETS
 18 .debug_macro  00040fd5  00000000  00000000  0002d6d4  2**0
                  CONTENTS, READONLY, DEBUGGING, OCTETS
 19 .debug_line   0000e756  00000000  00000000  0006e6a9  2**0
                  CONTENTS, READONLY, DEBUGGING, OCTETS
 20 .debug_str    0022704b  00000000  00000000  0007cdff  2**0
                  CONTENTS, READONLY, DEBUGGING, OCTETS
 21 .comment      00000045  00000000  00000000  002a3e4a  2**0
                  CONTENTS, READONLY
 22 .ARM.attributes 00000038  00000000  00000000  002a3e8f  2**0
                  CONTENTS, READONLY
 23 .debug_frame  00004294  00000000  00000000  002a3ec8  2**2
                  CONTENTS, READONLY, DEBUGGING, OCTETS
 24 .debug_loc    00005b56  00000000  00000000  002a815c  2**0
                  CONTENTS, READONLY, DEBUGGING, OCTETS
SYMBOL TABLE:
00000000 l    d  .text	00000000 .text
20000000 l    d  .data	00000000 .data
04000000 l    d  .data_RAM2	00000000 .data_RAM2
20060000 l    d  .data_RAM3	00000000 .data_RAM3
400ba000 l    d  .data_RAM4	00000000 .data_RAM4
2000000c l    d  .bss	00000000 .bss
20000000 l    d  .uninit_RESERVED	00000000 .uninit_RESERVED
04001000 l    d  .noinit_RAM2	00000000 .noinit_RAM2
20060000 l    d  .noinit_RAM3	00000000 .noinit_RAM3
400ba000 l    d  .noinit_RAM4	00000000 .noinit_RAM4
20000350 l    d  .noinit	00000000 .noinit
20000350 l    d  .heap	00000000 .heap
20001350 l    d  .heap2stackfill	00000000 .heap2stackfill
2005f000 l    d  .stack	00000000 .stack
00000000 l    d  .debug_info	00000000 .debug_info
00000000 l    d  .debug_abbrev	00000000 .debug_abbrev
00000000 l    d  .debug_aranges	00000000 .debug_aranges
00000000 l    d  .debug_ranges	00000000 .debug_ranges
00000000 l    d  .debug_macro	00000000 .debug_macro
00000000 l    d  .debug_line	00000000 .debug_line
00000000 l    d  .debug_str	00000000 .debug_str
00000000 l    d  .comment	00000000 .comment
00000000 l    d  .ARM.attributes	00000000 .ARM.attributes
00000000 l    d  .debug_frame	00000000 .debug_frame
00000000 l    d  .debug_loc	00000000 .debug_loc
00000000 l    df *ABS*	00000000 startup_mcxn947_cm33_core0.c
00000000 l    df *ABS*	00000000 fsl_assert.c
00000000 l    df *ABS*	00000000 fsl_debug_console.c
2000034c l     O .bss	00000001 s_debugConsoleReadWaitSemaphore
2000000c l     O .bss	00000020 s_debugConsoleState
00002d20 l     F .text	00000066 DbgConsole_PrintCallback
00000000 l    df *ABS*	00000000 bunny_build.c
00000000 l    df *ABS*	00000000 main.c
000007f0 l     F .text	0000003c __NVIC_EnableIRQ
0000082c l     F .text	00000048 __NVIC_DisableIRQ
000038b8 l     F .text	00000094 CLOCK_EnableClock
0000394c l     F .text	00000032 EnableIRQ
0000397e l     F .text	00000032 DisableIRQ
000039b0 l     F .text	0000003e PORT_SetPinMux
00000874 l     F .text	00000074 E_LABEL
000008e8 l     F .text	00000070 E_GOSUB
000039ee l     F .text	0000000e E_NOP
00000958 l     F .text	00000030 E_LOAD_IMM
000039fc l     F .text	00000030 E_LDR
00003a2c l     F .text	0000002c E_PER_READ
00003a58 l     F .text	00000034 E_COND_ADD
00003a8c l     F .text	00000030 E_ADD_IMM
00003abc l     F .text	00000030 E_AND_IMM
00003aec l     F .text	00000030 E_LSL
00003b1c l     F .text	00000034 E_LSR
00003b50 l     F .text	00000034 E_BCLR_IMM
00003b84 l     F .text	00000034 E_BSET_IMM
00003bb8 l     F .text	00000036 E_BTST_IMMS
00003bee l     F .text	0000001c E_HEART_RYTHM_IMM
00003c0a l     F .text	0000000e E_WAIT_FOR_BEAT
20000148 l     O .bss	00000004 i.0
00000000 l    df *ABS*	00000000 fsl_clock.c
00000b28 l     F .text	00000028 CLOCK_IsPLL0Locked
20000000 l     O .data	00000004 s_Ext_Clk_Freq
20000004 l     O .data	00000004 s_Xtal32_Freq
00000f78 l     F .text	0000002c CLOCK_GetClk48MFreq
00000fa4 l     F .text	0000002c CLOCK_GetExtClkFreq
00000fd0 l     F .text	0000004c CLOCK_GetOsc32KFreq
0000101c l     F .text	00000040 findPll0PreDiv
0000105c l     F .text	00000060 findPll0PostDiv
000010bc l     F .text	000000ac findPll0MMult
00000000 l    df *ABS*	00000000 fsl_lpflexcomm.c
00003cde l     F .text	00000094 CLOCK_EnableClock
00004a80 l     O .text	00000028 s_lpflexcommBase
2000014c l     O .bss	000000a0 s_lpflexcommIrqHandler
200001ec l     O .bss	000000a0 s_lpflexcommHandle
00004aa8 l     O .text	00000014 s_lpflexcommClocks
00004abc l     O .text	00000028 s_lpflexcommResets
00003d72 l     F .text	00000052 LP_FLEXCOMM_PeripheralIsPresent
00001190 l     F .text	00000094 LP_FLEXCOMM_SetPeriph
0000127c l     F .text	000000b8 LP_FLEXCOMM_CommonIRQHandler
00000000 l    df *ABS*	00000000 fsl_lpuart.c
00003e50 l     F .text	0000002c LPUART_SoftwareReset
00004b74 l     O .text	00000028 s_lpuartBases
00000000 l    df *ABS*	00000000 fsl_reset.c
00000000 l    df *ABS*	00000000 system_MCXN947_cm33_core0.c
00000000 l    df *ABS*	00000000 fsl_adapter_lpuart.c
00004d68 l     O .text	00000028 s_LpuartAdapterBase
00003ea6 l     F .text	00000028 HAL_UartGetStatus
00001a14 l     F .text	000000e4 HAL_UartInitCommon
00000000 l    df *ABS*	00000000 board.c
00000000 l    df *ABS*	00000000 clock_config.c
00004132 l     F .text	00000094 CLOCK_EnableClock
00000000 l    df *ABS*	00000000 pin_mux.c
000041e0 l     F .text	00000094 CLOCK_EnableClock
00001ca0 l     F .text	00000038 PORT_SetPinConfig
00000000 l    df *ABS*	00000000 alloc.c
00000000 l    df *ABS*	00000000 initio.c
00000000 l    df *ABS*	00000000 printf.c
000042c6 l     F .text	00000004 no_fp_display
00000000 l    df *ABS*	00000000 _cr_sbrk.c
00000000 l    df *ABS*	00000000 _writebuf.c
00000000 l    df *ABS*	00000000 fflush.c
00000000 l    df *ABS*	00000000 fseek.c
00000000 l    df *ABS*	00000000 ftell.c
00000000 l    df *ABS*	00000000 _cr_check_heap.c
00000000 l    df *ABS*	00000000 fsl_str.c
00002db2 l     F .text	0000006a PrintGetWidth
00002e1c l     F .text	0000008c PrintGetPrecision
00002ea8 l     F .text	00000038 PrintIsobpu
00002ee0 l     F .text	0000002c PrintIsdi
00002f0c l     F .text	00000044 PrintOutputdifFobpu
00002f50 l     F .text	00000044 PrintOutputxX
00002f94 l     F .text	0000002c PrintIsfF
00002fc0 l     F .text	0000002c PrintIsxX
00002fec l     F .text	0000003e PrintFilterLengthFlag
0000302a l     F .text	00000040 PrintGetRadixFromobpu
0000306a l     F .text	000000c2 ConvertRadixNumToString
00000000 l    df *ABS*	00000000 semihost_hardfault.c
00003c34 l       .text	00000000 _MSP
00003c38 l       .text	00000000 _process
00003c46 l       .text	00000000 _semihost_return
00003c54 l       .text	00000000 _non_zero_ret
00003c56 l       .text	00000000 _sys_ret
00000000 l    df *ABS*	00000000 fsl_component_serial_manager.c
00003ece l     F .text	00000022 DisableGlobalIRQ
00003ef0 l     F .text	00000020 EnableGlobalIRQ
00003f10 l     F .text	00000038 SerialManager_StartWriting
00003f48 l     F .text	00000044 SerialManager_Write
00000000 l    df *ABS*	00000000 fsl_component_serial_port_uart.c
00000000 l    df *ABS*	00000000 peripherals.c
00000000 l    df *ABS*	00000000 _cr__main.c
00000000 l    df *ABS*	00000000 memcpy.c
00000000 l    df *ABS*	00000000 memset.c
00000000 l    df *ABS*	00000000 setvbuf.c
00000000 l    df *ABS*	00000000 strcmp.c
00000000 l    df *ABS*	00000000 strlen.c
00000000 l    df *ABS*	00000000 _deferredlazyseek.c
00000000 l    df *ABS*	00000000 _fdopen.c
00000000 l    df *ABS*	00000000 _fflush.c
00000000 l    df *ABS*	00000000 fclose.c
00000000 l    df *ABS*	00000000 remove.c
00000000 l    df *ABS*	00000000 _do_fflush.c
00000000 l    df *ABS*	00000000 float.c
00000000 l    df *ABS*	00000000 memcpy.o
000046e2 l       .text	00000000 copy1
000046cc l       .text	00000000 copy4
00004718 l       .text	00000000 memset1a
00004706 l       .text	00000000 __bhs_memset4
00004708 l       .text	00000000 memset4
00004714 l       .text	00000000 memset1
00000000 l    df *ABS*	00000000 __sys_appexit.c
00000000 l    df *ABS*	00000000 __sys_close.c
00000000 l    df *ABS*	00000000 __sys_flen.c
00000000 l    df *ABS*	00000000 __sys_istty.c
00000000 l    df *ABS*	00000000 __sys_remove.c
00000000 l    df *ABS*	00000000 __sys_seek.c
00000000 l    df *ABS*	00000000 __sys_tmpnam.c
00000000 l    df *ABS*	00000000 __sys_write.c
00000000 l    df *ABS*	00000000 __ciob.c
00000000 l    df *ABS*	00000000 errno.c
00000000 l    df *ABS*	00000000 __init_alloc.c
000003ac  w    F .text	00000002 HSCMP1_DriverIRQHandler
000003ac  w    F .text	00000002 EDMA_1_CH5_DriverIRQHandler
000034e0  w    F .text	00000008 SCT0_IRQHandler
00004280 g     F .text	0000000e __main
00001380 g     F .text	000003c4 LPUART_Init
000003ac  w    F .text	00000002 PINT0_DriverIRQHandler
000003ac  w    F .text	00000002 WWDT1_DriverIRQHandler
00000000 g     O .text	000002b0 __Vectors
000003a6  w    F .text	00000002 DebugMon_Handler
000003ac  w    F .text	00000002 EDMA_1_CH13_DriverIRQHandler
00003708  w    F .text	00000008 TSI_OUT_OF_SCAN_IRQHandler
0000439a g     F .text	00000040 _deferredlazyseek
000037c0  w    F .text	00000008 ENC0_HOME_IRQHandler
000003ac  w    F .text	00000002 EMVSIM0_DriverIRQHandler
000003ac  w    F .text	00000002 I3C0_DriverIRQHandler
000003ac  w    F .text	00000002 USB0_FS_DriverIRQHandler
000003ac  w    F .text	00000002 PKC_ERR_DriverIRQHandler
000002b0 g       .text	00000000 __section_table_start
00004724  w    F .text	00000002 __exit
00003768  w    F .text	00000008 FLEXPWM0_SUBMODULE0_IRQHandler
00003560  w    F .text	00000008 Reserved65_IRQHandler
000038a0  w    F .text	00000008 WWDT1_IRQHandler
00004744 g     F .text	00000006 __sys_tmpnam
00003598  w    F .text	00000008 CTIMER4_IRQHandler
00001be0 g     F .text	00000038 BOARD_InitDebugConsole
000036d0  w    F .text	00000008 I3C0_IRQHandler
000003ac  w    F .text	00000002 ENC0_IDX_DriverIRQHandler
000003ac  w    F .text	00000002 EDMA_0_CH5_DriverIRQHandler
00003c26 g     F .text	00000036 HardFault_Handler
000003ac  w    F .text	00000002 EDMA_0_CH14_DriverIRQHandler
000003ac  w    F .text	00000002 EDMA_1_CH0_DriverIRQHandler
000003ac  w    F .text	00000002 SCG_DriverIRQHandler
00001cd8 g     F .text	0000005c BOARD_InitDEBUG_UARTPins
00000000 g       *ABS*	00000000 __vectors_start__
00003600  w    F .text	00000008 Reserved85_IRQHandler
00001000 g       *ABS*	00000000 _HeapSize
000003ac  w    F .text	00000002 CMC0_DriverIRQHandler
000003ac  w    F .text	00000002 EDMA_0_CH15_DriverIRQHandler
000035a0  w    F .text	00000008 OS_EVENT_IRQHandler
000003ac  w    F .text	00000002 LPTMR0_DriverIRQHandler
000003ac  w    F .text	00000002 EDMA_0_CH2_DriverIRQHandler
000003aa  w    F .text	00000002 SysTick_Handler
400bb000 g       *ABS*	00000000 __top_RAM4
00002a2c g     F .text	00000068 _vsnprintf
000017d0 g     F .text	00000068 LPUART_WriteBlocking
00003788  w    F .text	00000008 FLEXPWM1_RELOAD_ERROR_IRQHandler
000003ac  w    F .text	00000002 FLEXPWM1_SUBMODULE1_DriverIRQHandler
000003ac  w    F .text	00000002 FLEXPWM0_SUBMODULE1_DriverIRQHandler
000034c0  w    F .text	00000008 UTICK0_IRQHandler
04000000 g       *ABS*	00000000 __base_RAM2
000003a8  w    F .text	00000002 PendSV_Handler
00000398  w    F .text	00000002 NMI_Handler
000003ac  w    F .text	00000002 EDMA_1_CH11_DriverIRQHandler
00004ff4 g       .uninit_RESERVED	00000000 __exidx_end
000002e0 g       .text	00000000 __data_section_table_end
000036a8  w    F .text	00000008 EDMA_1_CH13_IRQHandler
000003ac  w    F .text	00000002 FLEXPWM0_RELOAD_ERROR_DriverIRQHandler
00003500  w    F .text	00000008 LP_FLEXCOMM2_IRQHandler
000036b8  w    F .text	00000008 EDMA_1_CH15_IRQHandler
000003ac  w    F .text	00000002 TRNG0_DriverIRQHandler
000043da g     F .text	00000140 __flsbuf
000035d0  w    F .text	00000008 CAN1_IRQHandler
00003448  w    F .text	00000008 EDMA_0_CH13_IRQHandler
00003760  w    F .text	00000008 FLEXPWM0_FAULT_IRQHandler
000003ac  w    F .text	00000002 EDMA_1_CH9_DriverIRQHandler
000003ac  w    F .text	00000002 SEC_VIO_DriverIRQHandler
00003460  w    F .text	00000008 GPIO00_IRQHandler
20060000 g       *ABS*	00000000 __top_SRAM
00003e42 g     F .text	0000000e LP_FLEXCOMM9_DriverIRQHandler
2000028c g     O .bss	00000004 errno
00004ff4 g       .text	00000000 _etext
000037b8  w    F .text	00000008 ENC0_COMPARE_IRQHandler
000003ac  w    F .text	00000002 ERM_MULTI_BIT_ERROR_DriverIRQHandler
00003770  w    F .text	00000008 FLEXPWM0_SUBMODULE1_IRQHandler
000003ac  w    F .text	00000002 GPIO31_DriverIRQHandler
000003ac  w    F .text	00000002 EWM0_DriverIRQHandler
000003ac  w    F .text	00000002 PKC_DriverIRQHandler
00003490  w    F .text	00000008 GPIO30_IRQHandler
000037c8  w    F .text	00000008 ENC0_WDG_SAB_IRQHandler
000035a8  w    F .text	00000008 FLEXSPI0_IRQHandler
000040bc g     F .text	0000003e Serial_UartInit
000003ac  w    F .text	00000002 EDMA_0_CH10_DriverIRQHandler
000003ac  w    F .text	00000002 USB1_HS_PHY_DriverIRQHandler
00001000 g       *ABS*	00000000 _StackSize
000041c6 g     F .text	0000000c BOARD_InitBootClocks
00000386 g     F .text	00000012 bss_init
0000428e g     F .text	00000004 memcpy
00003fec g     F .text	00000050 SerialManager_OpenWriteHandle
000003ac  w    F .text	00000002 ELS_DriverIRQHandler
000042ca g     F .text	0000003e setvbuf
00003618  w    F .text	00000008 SEC_VIO_IRQHandler
00003748  w    F .text	00000008 HSCMP1_IRQHandler
00003418  w    F .text	00000008 EDMA_0_CH7_IRQHandler
000003ac  w    F .text	00000002 EDMA_1_CH2_DriverIRQHandler
20000350 g       .noinit	00000000 _noinit
000003ac  w    F .text	00000002 ETHERNET_DriverIRQHandler
00003738  w    F .text	00000008 DAC2_IRQHandler
00003468  w    F .text	00000008 GPIO01_IRQHandler
20000008 g     O .data	00000004 SystemCoreClock
000003ac  w    F .text	00000002 EDMA_1_CH14_DriverIRQHandler
000003ac  w    F .text	00000002 FLEXPWM1_SUBMODULE3_DriverIRQHandler
000003ac  w    F .text	00000002 EDMA_1_CH7_DriverIRQHandler
000003ac  w    F .text	00000002 EDMA_1_CH6_DriverIRQHandler
000003ac  w    F .text	00000002 DAC1_DriverIRQHandler
00100000 g       *ABS*	00000000 __base_PROGRAM_FLASH1
00003540  w    F .text	00000008 ADC0_IRQHandler
00001d34 g     F .text	000000e8 malloc
0000462c g     F .text	00000014 remove
000003ac  w    F .text	00000002 CTIMER2_DriverIRQHandler
00003710  w    F .text	00000008 EMVSIM0_IRQHandler
00003640  w    F .text	00000008 EDMA_1_CH0_IRQHandler
000003a0  w    F .text	00000002 UsageFault_Handler
20060000 g       *ABS*	00000000 __top_RAM
000003ac  w    F .text	00000002 ITRC0_DriverIRQHandler
000033e0  w    F .text	00000008 EDMA_0_CH0_IRQHandler
000003ac  w    F .text	00000002 EDMA_0_CH9_DriverIRQHandler
000046be g     F .text	0000000a __aeabi_memcpy
000037b0  w    F .text	00000008 FLEXPWM1_SUBMODULE3_IRQHandler
000003ac  w    F .text	00000002 ETB0_DriverIRQHandler
0000472c g     F .text	00000006 __sys_flen
000003ac  w    F .text	00000002 Freqme_DriverIRQHandler
000003ac  w    F .text	00000002 Reserved80_DriverIRQHandler
000003ac  w    F .text	00000002 IntDefaultHandler
04018000 g       *ABS*	00000000 __top_SRAMX
000036f0  w    F .text	00000008 VBAT0_IRQHandler
04018000 g       *ABS*	00000000 __top_RAM2
20001350 g       .heap	00000000 _pvHeapLimit
00002b90 g     F .text	0000003c fflush
00001af8 g     F .text	00000084 HAL_UartInit
00001c18 g     F .text	00000088 BOARD_BootClockPLL150M
00003838  w    F .text	00000008 ETHERNET_PMT_IRQHandler
04000000 g       *ABS*	00000000 __base_SRAMX
00003580  w    F .text	00000008 SMARTDMA_IRQHandler
000033e8  w    F .text	00000008 EDMA_0_CH1_IRQHandler
000003ac  w    F .text	00000002 ELS_ERR_DriverIRQHandler
000003ac  w    F .text	00000002 FLEXIO_DriverIRQHandler
000003ac  w    F .text	00000002 DAC0_DriverIRQHandler
000003ac  w    F .text	00000002 MRT0_DriverIRQHandler
000003ac  w    F .text	00000002 UTICK0_DriverIRQHandler
00004ff4 g       .uninit_RESERVED	00000000 __exidx_start
000003b0 g     F .text	00000018 __assertion_failed
000046c8 g     F .text	0000002a __aeabi_memcpy4
000003ac  w    F .text	00000002 FLEXPWM0_SUBMODULE2_DriverIRQHandler
000003ac  w    F .text	00000002 GPIO01_DriverIRQHandler
000003ac  w    F .text	00000002 EDMA_0_CH3_DriverIRQHandler
000003ac  w    F .text	00000002 WWDT0_DriverIRQHandler
000036e0  w    F .text	00000008 NPU_IRQHandler
000003ac  w    F .text	00000002 USDHC0_DriverIRQHandler
00003430  w    F .text	00000008 EDMA_0_CH10_IRQHandler
0000451a g     F .text	00000068 _fdopen
000046f2 g     F .text	00000032 __aeabi_lowlevel_memset
20000000 g       *ABS*	00000000 __base_SRAM
00003798  w    F .text	00000008 FLEXPWM1_SUBMODULE0_IRQHandler
000003ac  w    F .text	00000002 GPIO00_DriverIRQHandler
00003400  w    F .text	00000008 EDMA_0_CH4_IRQHandler
00003548  w    F .text	00000008 ADC1_IRQHandler
00002ae8 g     F .text	0000003c _sbrk
000003ac  w    F .text	00000002 EDMA_0_CH4_DriverIRQHandler
00003818  w    F .text	00000008 ERM_SINGLE_BIT_ERROR_IRQHandler
000003ac  w    F .text	00000002 GPIO11_DriverIRQHandler
00003570  w    F .text	00000008 USB0_DCD_IRQHandler
000002b0 g       .text	00000000 __data_section_table
00004f9c g     O .text	00000004 __num_Ciob_streams
20000140 g     O .bss	00000004 ez_pass_num
00003880  w    F .text	00000008 ETB0_IRQHandler
00003680  w    F .text	00000008 EDMA_1_CH8_IRQHandler
000003ac  w    F .text	00000002 CTIMER4_DriverIRQHandler
00003578  w    F .text	00000008 RTC_IRQHandler
000003ac  w    F .text	00000002 BSP32_DriverIRQHandler
00001334 g     F .text	0000004c LPUART_GetInstance
20000350 g       .bss	00000000 _ebss
000003ac  w    F .text	00000002 FLEXPWM0_FAULT_DriverIRQHandler
000003ac  w    F .text	00000002 EDMA_1_CH1_DriverIRQHandler
00003e26 g     F .text	0000000e LP_FLEXCOMM7_DriverIRQHandler
00006000 g       *ABS*	00000000 _image_size
000038a8  w    F .text	00000008 CMC0_IRQHandler
00001eb4 g     F .text	00000b78 __vfprintf
000003ac  w    F .text	00000002 SAI1_DriverIRQHandler
000034e8  w    F .text	00000008 CTIMER2_IRQHandler
00003478  w    F .text	00000008 GPIO11_IRQHandler
000036b0  w    F .text	00000008 EDMA_1_CH14_IRQHandler
20060000 g       *ABS*	00000000 __base_RAM3
00003870  w    F .text	00000008 WUU_IRQHandler
00003408  w    F .text	00000008 EDMA_0_CH5_IRQHandler
00003898  w    F .text	00000008 WWDT0_IRQHandler
000003ac  w    F .text	00000002 ERM_SINGLE_BIT_ERROR_DriverIRQHandler
00001838 g     F .text	00000064 RESET_SetPeripheralReset
000037a0  w    F .text	00000008 FLEXPWM1_SUBMODULE1_IRQHandler
000003ac  w    F .text	00000002 GPIO21_DriverIRQHandler
00000368 g     F .text	0000001e data_init
00003820  w    F .text	00000008 ERM_MULTI_BIT_ERROR_IRQHandler
00003848  w    F .text	00000008 SINC_FILTER_IRQHandler
000046c8 g     F .text	0000002a __aeabi_memcpy8
00004680 g     F .text	0000003e __aeabi_f2ulz
00003828  w    F .text	00000008 FMU0_IRQHandler
00003568  w    F .text	00000008 USB0_FS_IRQHandler
00003590  w    F .text	00000008 CTIMER3_IRQHandler
000034f8  w    F .text	00000008 LP_FLEXCOMM1_IRQHandler
000003ac  w    F .text	00000002 FLEXPWM1_FAULT_DriverIRQHandler
000003ac  w    F .text	00000002 GPIO30_DriverIRQHandler
00003e0a g     F .text	0000000e LP_FLEXCOMM5_DriverIRQHandler
00001224 g     F .text	00000058 LP_FLEXCOMM_Init
00003800  w    F .text	00000008 BSP32_IRQHandler
000003ac  w    F .text	00000002 CTIMER0_DriverIRQHandler
00002bcc g     F .text	000000f8 fseek
00003890  w    F .text	00000008 TRNG0_IRQHandler
00003550  w    F .text	00000008 PINT0_IRQHandler
00000000 g       *ABS*	00000000 __base_Flash
00003de0 g     F .text	0000000e LP_FLEXCOMM2_DriverIRQHandler
00003620  w    F .text	00000008 ELS_IRQHandler
000003ac  w    F .text	00000002 CTIMER1_DriverIRQHandler
000034d8  w    F .text	00000008 CTIMER1_IRQHandler
000003a2  w    F .text	00000002 SecureFault_Handler
00004582 g     F .text	00000052 _fflush
000003ac  w    F .text	00000002 ADC1_DriverIRQHandler
00003758  w    F .text	00000008 FLEXPWM0_RELOAD_ERROR_IRQHandler
000003ac  w    F .text	00000002 ENC0_HOME_DriverIRQHandler
00200000 g       *ABS*	00000000 __top_Flash2
00003790  w    F .text	00000008 FLEXPWM1_FAULT_IRQHandler
000003ac  w    F .text	00000002 PQ_DriverIRQHandler
2000000c g       .bss	00000000 _bss
000035b0  w    F .text	00000008 SAI0_IRQHandler
000003ac  w    F .text	00000002 ETHERNET_MACLP_DriverIRQHandler
00003638  w    F .text	00000008 PQ_IRQHandler
000037e8  w    F .text	00000008 ENC1_WDG_SAB_IRQHandler
00000660 g     F .text	00000068 ezbuild__label_get_address
000003ac  w    F .text	00000002 USB0_DCD_DriverIRQHandler
0000403c g     F .text	00000060 SerialManager_OpenReadHandle
000003ac  w    F .text	00000002 EDMA_0_CH11_DriverIRQHandler
000003ac  w    F .text	00000002 MAILBOX_DriverIRQHandler
00000000 g       *ABS*	00000000 __base_PROGRAM_FLASH0
00003440  w    F .text	00000008 EDMA_0_CH12_IRQHandler
00003648  w    F .text	00000008 EDMA_1_CH1_IRQHandler
000003ac  w    F .text	00000002 WUU_DriverIRQHandler
000035e8  w    F .text	00000008 USB1_HS_PHY_IRQHandler
000003ac  w    F .text	00000002 EDMA_0_CH6_DriverIRQHandler
000003ac  w    F .text	00000002 CTIMER3_DriverIRQHandler
00000000 g       *ABS*	00000000 _image_start
000003ac  w    F .text	00000002 FLEXPWM1_SUBMODULE0_DriverIRQHandler
00003dee g     F .text	0000000e LP_FLEXCOMM3_DriverIRQHandler
00100000 g       *ABS*	00000000 __top_Flash
000035f8  w    F .text	00000008 SEC_HYPERVISOR_CALL_IRQHandler
000003ac  w    F .text	00000002 SM3_DriverIRQHandler
00003698  w    F .text	00000008 EDMA_1_CH11_IRQHandler
00003420  w    F .text	00000008 EDMA_0_CH8_IRQHandler
00000988 g     F .text	00000104 ezh_4_bit_counter_app
000003ac  w    F .text	00000002 CDOG1_DriverIRQHandler
20000350 g       .noinit	00000000 _end_noinit
20060000 g       .stack	00000000 _vStackTop
000003ac  w    F .text	00000002 TSI_OUT_OF_SCAN_DriverIRQHandler
00000b50 g     F .text	0000009c CLOCK_SetupFROHFClocking
000034a0  w    F .text	00000008 GPIO40_IRQHandler
000033d8  w    F .text	00000008 OR_IRQHandler
00000300 g       .text	00000000 __bss_section_table_end
000038b0  w    F .text	00000008 CTI0_IRQHandler
00002d08 g     F .text	00000018 __check_heap_overflow
000003ac  w    F .text	00000002 ENC0_WDG_SAB_DriverIRQHandler
00000d10 g     F .text	000000b0 CLOCK_AttachClk
000003ac  w    F .text	00000002 EDMA_1_CH4_DriverIRQHandler
000003ac  w    F .text	00000002 PUF_DriverIRQHandler
00100000 g       *ABS*	00000000 __base_Flash2
000003ac  w    F .text	00000002 SPC_DriverIRQHandler
00003878  w    F .text	00000008 PORT_EFT_IRQHandler
000003ac  w    F .text	00000002 RTC_DriverIRQHandler
00000554 g     F .text	0000006c DbgConsole_Vprintf
000033f0  w    F .text	00000008 EDMA_0_CH2_IRQHandler
00003508  w    F .text	00000008 LP_FLEXCOMM3_IRQHandler
000003ac  w    F .text	00000002 VBAT0_DriverIRQHandler
20068000 g       *ABS*	00000000 __top_SRAMH
000003ac  w    F .text	00000002 Reserved65_DriverIRQHandler
400bb000 g       *ABS*	00000000 __top_USB_RAM
00100000 g       *ABS*	00000000 __top_PROGRAM_FLASH0
000003ac  w    F .text	00000002 HSCMP2_DriverIRQHandler
000003ac  w    F .text	00000002 EDMA_0_CH0_DriverIRQHandler
0000409c g     F .text	00000020 SerialManager_WriteBlocking
0000474a g     F .text	00000004 __sys_write
000037d8  w    F .text	00000008 ENC1_COMPARE_IRQHandler
00004292 g     F .text	00000004 memset
00000dc0 g     F .text	00000054 CLOCK_SetClkDiv
00003dd2 g     F .text	0000000e LP_FLEXCOMM1_DriverIRQHandler
0000039c  w    F .text	00000002 MemManage_Handler
00000a8c g     F .text	0000009c main
00003438  w    F .text	00000008 EDMA_0_CH11_IRQHandler
00001b7c g     F .text	00000064 HAL_UartSendBlocking
00004640 g     F .text	00000040 _do_fflush
00002cc4 g     F .text	00000044 ftell
00003588  w    F .text	00000008 MAILBOX_IRQHandler
000003ac  w    F .text	00000002 PDM_EVENT_DriverIRQHandler
00003558  w    F .text	00000008 PDM_EVENT_IRQHandler
000037a8  w    F .text	00000008 FLEXPWM1_SUBMODULE2_IRQHandler
000003a4  w    F .text	00000002 SVC_Handler
000045d4 g     F .text	00000058 fclose
000003ac  w    F .text	00000002 ETHERNET_PMT_DriverIRQHandler
000040fa g     F .text	00000038 Serial_UartWrite
400ba000 g       *ABS*	00000000 __base_RAM4
000003ac  w    F .text	00000002 FLEXPWM1_RELOAD_ERROR_DriverIRQHandler
20000034 g     O .bss	00000004 ez_idx
00004274 g     F .text	0000000c BOARD_InitBootPins
00003650  w    F .text	00000008 EDMA_1_CH2_IRQHandler
0000473e g     F .text	00000006 __sys_seek
0000189c g     F .text	00000064 RESET_ClearPeripheralReset
000036e8  w    F .text	00000008 GDET_IRQHandler
00003e7c g     F .text	0000001c RESET_PeripheralReset
000003ac  w    F .text	00000002 FMU0_DriverIRQHandler
00004308 g     F .text	00000044 strcmp
000003ac  w    F .text	00000002 EDMA_0_CH8_DriverIRQHandler
00003428  w    F .text	00000008 EDMA_0_CH9_IRQHandler
000034b0  w    F .text	00000008 GPIO50_IRQHandler
00001900  w    F .text	00000114 SystemInit
00003718  w    F .text	00000008 EMVSIM1_IRQHandler
000002e0 g       .text	00000000 __bss_section_table
000003ac  w    F .text	00000002 LPTMR1_DriverIRQHandler
00003810  w    F .text	00000008 PKC_ERR_IRQHandler
00003e18 g     F .text	0000000e LP_FLEXCOMM6_DriverIRQHandler
000037f8  w    F .text	00000008 ITRC0_IRQHandler
000036a0  w    F .text	00000008 EDMA_1_CH12_IRQHandler
00000e6c g     F .text	0000010c CLOCK_SetPLL0Freq
000003ac  w    F .text	00000002 GPIO40_DriverIRQHandler
000003ac  w    F .text	00000002 CTI0_DriverIRQHandler
000003ac  w    F .text	00000002 EDMA_1_CH3_DriverIRQHandler
00004726 g     F .text	00000006 __sys_close
000003ac  w    F .text	00000002 EDMA_1_CH15_DriverIRQHandler
00003518  w    F .text	00000008 LP_FLEXCOMM5_IRQHandler
00003728  w    F .text	00000008 DAC0_IRQHandler
000003ac  w    F .text	00000002 FLEXPWM1_SUBMODULE2_DriverIRQHandler
000034b8  w    F .text	00000008 GPIO51_IRQHandler
000003ac  w    F .text	00000002 ENC1_HOME_DriverIRQHandler
00003860  w    F .text	00000008 SCG_IRQHandler
00003740  w    F .text	00000008 HSCMP0_IRQHandler
000003ac  w    F .text	00000002 GPIO20_DriverIRQHandler
000035e0  w    F .text	00000008 Reserved81_IRQHandler
00003868  w    F .text	00000008 SPC_IRQHandler
000037e0  w    F .text	00000008 ENC1_HOME_IRQHandler
00003410  w    F .text	00000008 EDMA_0_CH6_IRQHandler
000005c0 g     F .text	000000a0 ezbuild__add_label
000034a8  w    F .text	00000008 GPIO41_IRQHandler
000003ac  w    F .text	00000002 EDMA_1_CH8_DriverIRQHandler
20000000 g       .uninit_RESERVED	00000000 _end_uninit_RESERVED
20000000 g       .uninit_RESERVED	00000000 _start_uninit_RESERVED
00002b24 g     F .text	0000006c _Cwritebuf
000003ac  w    F .text	00000002 GDET_DriverIRQHandler
00003628  w    F .text	00000008 PKC_IRQHandler
00003750  w    F .text	00000008 HSCMP2_IRQHandler
000035c8  w    F .text	00000008 CAN0_IRQHandler
00003538  w    F .text	00000008 LP_FLEXCOMM9_IRQHandler
20000000 g       .data	00000000 _data
000003ac  w    F .text	00000002 PORT_EFT_DriverIRQHandler
00003610  w    F .text	00000008 Freqme_IRQHandler
000036d8  w    F .text	00000008 I3C1_IRQHandler
00003528  w    F .text	00000008 LP_FLEXCOMM7_IRQHandler
20000350 g       .heap	00000000 _pvHeapStart
000003ac  w    F .text	00000002 Reserved85_DriverIRQHandler
000003ac  w    F .text	00000002 Reserved81_DriverIRQHandler
00000300 g       .text	00000000 __section_table_end
400ba000 g       *ABS*	00000000 __base_USB_RAM
00003c5c g     F .text	00000082 CLOCK_GetPll0OutFreq
20000030 g     O .bss	00000004 ez_out
0000312c g     F .text	000002ac StrFormatPrintf
000003c8 g     F .text	00000054 DbgConsole_SendDataReliable
000003ac  w    F .text	00000002 TSI_END_OF_SCAN_DriverIRQHandler
00001744 g     F .text	0000008c LPUART_GetDefaultConfig
000035c0  w    F .text	00000008 USDHC0_IRQHandler
000003ac  w    F .text	00000002 ENC1_IDX_DriverIRQHandler
00003630  w    F .text	00000008 PUF_IRQHandler
00003658  w    F .text	00000008 EDMA_1_CH3_IRQHandler
00000c24 g     F .text	000000ec CLOCK_SetFLASHAccessCyclesForFreq
000003ac  w    F .text	00000002 FLEXPWM0_SUBMODULE3_DriverIRQHandler
0000041c g     F .text	00000138 DbgConsole_Init
000003ac  w    F .text	00000002 ADC0_DriverIRQHandler
20000038 g     O .bss	00000100 ez_labels
00004738 g     F .text	00000006 __sys_remove
000006c8 g     F .text	000000b4 ezbuild
000003ac  w    F .text	00000002 OR_DriverIRQHandler
000034f0  w    F .text	00000008 LP_FLEXCOMM0_IRQHandler
000037d0  w    F .text	00000008 ENC0_IDX_IRQHandler
000003ac  w    F .text	00000002 EDMA_0_CH13_DriverIRQHandler
00003470  w    F .text	00000008 GPIO10_IRQHandler
000003ac  w    F .text	00000002 USB1_HS_DriverIRQHandler
2000000c g       .data	00000000 _edata
000035f0  w    F .text	00000008 USB1_HS_IRQHandler
00003e98  w    F .text	0000000e SystemInitHook
00003670  w    F .text	00000008 EDMA_1_CH6_IRQHandler
00003480  w    F .text	00000008 GPIO20_IRQHandler
000003ac  w    F .text	00000002 EDMA_0_CH1_DriverIRQHandler
000036f8  w    F .text	00000008 EWM0_IRQHandler
000003ac  w    F .text	00000002 DAC2_DriverIRQHandler
000033f8  w    F .text	00000008 EDMA_0_CH3_IRQHandler
000003ac  w    F .text	00000002 GPIO51_DriverIRQHandler
000003ac  w    F .text	00000002 HSCMP0_DriverIRQHandler
00001168 g     F .text	00000028 LP_FLEXCOMM_GetInterruptStatus
000003ac  w    F .text	00000002 EDMA_0_CH12_DriverIRQHandler
00003730  w    F .text	00000008 DAC1_IRQHandler
00003660  w    F .text	00000008 EDMA_1_CH4_IRQHandler
000003ac  w    F .text	00000002 CDOG0_DriverIRQHandler
20000294 g     O .bss	00000004 __heaps
000003ac  w    F .text	00000002 CAN0_DriverIRQHandler
00004724 g     F .text	00000002 __sys_appexit
00003608  w    F .text	00000008 PLU_IRQHandler
00003c18 g     F .text	0000000e SMARTDMA_DriverIRQHandler
00003888  w    F .text	00000008 SM3_IRQHandler
000035d8  w    F .text	00000008 Reserved80_IRQHandler
000041d2 g     F .text	0000000e BOARD_InitBootPeripherals
000003ac  w    F .text	00000002 SAI0_DriverIRQHandler
20000000 g       *ABS*	00000000 __base_RAM
00000000 g     O .text	000002b0 g_pfnVectors
00000300 g     F .text	00000064 ResetISR
00006000 g       *ABS*	00000000 _image_end
00000e14 g     F .text	00000058 CLOCK_GetPLL0InClockRate
20000290 g     O .bss	00000004 __end_of_heap
00003690  w    F .text	00000008 EDMA_1_CH10_IRQHandler
000003ac  w    F .text	00000002 EMVSIM1_DriverIRQHandler
000003ac  w    F .text	00000002 I3C1_DriverIRQHandler
00001e1c g     F .text	00000020 _Csys_alloc
000034c8  w    F .text	00000008 MRT0_IRQHandler
00003520  w    F .text	00000008 LP_FLEXCOMM6_IRQHandler
000003ac  w    F .text	00000002 ENC0_COMPARE_DriverIRQHandler
00003808  w    F .text	00000008 ELS_ERR_IRQHandler
00003688  w    F .text	00000008 EDMA_1_CH9_IRQHandler
000003ac  w    F .text	00000002 EDMA_0_CH7_DriverIRQHandler
000036c0  w    F .text	00000008 CDOG0_IRQHandler
00200000 g       *ABS*	00000000 __top_PROGRAM_FLASH1
00003678  w    F .text	00000008 EDMA_1_CH7_IRQHandler
20060000 g       *ABS*	00000000 __base_SRAMH
20000138 g     O .bss	00000004 ez_num_labels
00003850  w    F .text	00000008 LPTMR0_IRQHandler
20068000 g       *ABS*	00000000 __top_RAM3
0000039e  w    F .text	00000002 BusFault_Handler
00003668  w    F .text	00000008 EDMA_1_CH5_IRQHandler
000003ac  w    F .text	00000002 EDMA_1_CH10_DriverIRQHandler
0000434c g     F .text	0000004e strlen
000003ac  w    F .text	00000002 EDMA_1_CH12_DriverIRQHandler
00003f8c g     F .text	00000060 SerialManager_Init
00003e34 g     F .text	0000000e LP_FLEXCOMM8_DriverIRQHandler
000003ac  w    F .text	00000002 FLEXSPI0_DriverIRQHandler
00002a94 g     F .text	00000054 _printf
000034d0  w    F .text	00000008 CTIMER0_IRQHandler
00000bec g     F .text	00000038 CLOCK_SetPll0MonitorMode
000003ac  w    F .text	00000002 GPIO50_DriverIRQHandler
00003778  w    F .text	00000008 FLEXPWM0_SUBMODULE2_IRQHandler
20000144 g     O .bss	00000004 ez_out_len
00003840  w    F .text	00000008 ETHERNET_MACLP_IRQHandler
000003ac  w    F .text	00000002 GPIO10_DriverIRQHandler
00003488  w    F .text	00000008 GPIO21_IRQHandler
00003498  w    F .text	00000008 GPIO31_IRQHandler
00003780  w    F .text	00000008 FLEXPWM0_SUBMODULE3_IRQHandler
2005f000 g       .stack	00000000 _vStackBase
2000013c g     O .bss	00000004 ez_base_address
00003530  w    F .text	00000008 LP_FLEXCOMM8_IRQHandler
2000002c g     O .bss	00000004 g_serialHandle
00003858  w    F .text	00000008 LPTMR1_IRQHandler
00003700  w    F .text	00000008 TSI_END_OF_SCAN_IRQHandler
00003458  w    F .text	00000008 EDMA_0_CH15_IRQHandler
000003ac  w    F .text	00000002 SCT0_DriverIRQHandler
00003450  w    F .text	00000008 EDMA_0_CH14_IRQHandler
000003ac  w    F .text	00000002 CAN1_DriverIRQHandler
000036c8  w    F .text	00000008 CDOG1_IRQHandler
000003ac  w    F .text	00000002 ENC1_COMPARE_DriverIRQHandler
00001e3c g     F .text	00000078 _initio
000003ac  w    F .text	00000002 PLU_DriverIRQHandler
000003ac  w    F .text	00000002 FLEXPWM0_SUBMODULE0_DriverIRQHandler
00003830  w    F .text	00000008 ETHERNET_IRQHandler
00003510  w    F .text	00000008 LP_FLEXCOMM4_IRQHandler
20000298 g     O .bss	000000b4 __Ciob
04000000 g     O .data_RAM2	00001000 my_ezh_program
000037f0  w    F .text	00000008 ENC1_IDX_IRQHandler
00004732 g     F .text	00000006 __sys_istty
000003ac  w    F .text	00000002 OS_EVENT_DriverIRQHandler
00003720  w    F .text	00000008 FLEXIO_IRQHandler
00003dc4 g     F .text	0000000e LP_FLEXCOMM0_DriverIRQHandler
000003ac  w    F .text	00000002 ENC1_WDG_SAB_DriverIRQHandler
000035b8  w    F .text	00000008 SAI1_IRQHandler
000003ac  w    F .text	00000002 SINC_FILTER_DriverIRQHandler
00003dfc g     F .text	0000000e LP_FLEXCOMM4_DriverIRQHandler
00002d86 g     F .text	0000002c DbgConsole_Printf
00004296 g     F .text	00000030 free
000003ac  w    F .text	00000002 NPU_DriverIRQHandler
000003ac  w    F .text	00000002 GPIO41_DriverIRQHandler
0000077c g     F .text	00000074 ezbuild_add_instruction
000003ac  w    F .text	00000002 SEC_HYPERVISOR_CALL_DriverIRQHandler



Disassembly of section .text:

00000000 <__Vectors>:
       0:	00 00 06 20 01 03 00 00 99 03 00 00 27 3c 00 00     ... ........'<..
      10:	9d 03 00 00 9f 03 00 00 a1 03 00 00 a3 03 00 00     ................
	...
      2c:	a5 03 00 00 a7 03 00 00 00 00 00 00 a9 03 00 00     ................
      3c:	ab 03 00 00 d9 33 00 00 e1 33 00 00 e9 33 00 00     .....3...3...3..
      4c:	f1 33 00 00 f9 33 00 00 01 34 00 00 09 34 00 00     .3...3...4...4..
      5c:	11 34 00 00 19 34 00 00 21 34 00 00 29 34 00 00     .4...4..!4..)4..
      6c:	31 34 00 00 39 34 00 00 41 34 00 00 49 34 00 00     14..94..A4..I4..
      7c:	51 34 00 00 59 34 00 00 61 34 00 00 69 34 00 00     Q4..Y4..a4..i4..
      8c:	71 34 00 00 79 34 00 00 81 34 00 00 89 34 00 00     q4..y4...4...4..
      9c:	91 34 00 00 99 34 00 00 a1 34 00 00 a9 34 00 00     .4...4...4...4..
      ac:	b1 34 00 00 b9 34 00 00 c1 34 00 00 c9 34 00 00     .4...4...4...4..
      bc:	d1 34 00 00 d9 34 00 00 e1 34 00 00 e9 34 00 00     .4...4...4...4..
      cc:	f1 34 00 00 f9 34 00 00 01 35 00 00 09 35 00 00     .4...4...5...5..
      dc:	11 35 00 00 19 35 00 00 21 35 00 00 29 35 00 00     .5...5..!5..)5..
      ec:	31 35 00 00 39 35 00 00 41 35 00 00 49 35 00 00     15..95..A5..I5..
      fc:	51 35 00 00 59 35 00 00 61 35 00 00 69 35 00 00     Q5..Y5..a5..i5..
     10c:	71 35 00 00 79 35 00 00 81 35 00 00 89 35 00 00     q5..y5...5...5..
     11c:	91 35 00 00 99 35 00 00 a1 35 00 00 a9 35 00 00     .5...5...5...5..
     12c:	b1 35 00 00 b9 35 00 00 c1 35 00 00 c9 35 00 00     .5...5...5...5..
     13c:	d1 35 00 00 d9 35 00 00 e1 35 00 00 e9 35 00 00     .5...5...5...5..
     14c:	f1 35 00 00 f9 35 00 00 01 36 00 00 09 36 00 00     .5...5...6...6..
     15c:	11 36 00 00 19 36 00 00 21 36 00 00 29 36 00 00     .6...6..!6..)6..
     16c:	31 36 00 00 39 36 00 00 41 36 00 00 49 36 00 00     16..96..A6..I6..
     17c:	51 36 00 00 59 36 00 00 61 36 00 00 69 36 00 00     Q6..Y6..a6..i6..
     18c:	71 36 00 00 79 36 00 00 81 36 00 00 89 36 00 00     q6..y6...6...6..
     19c:	91 36 00 00 99 36 00 00 a1 36 00 00 a9 36 00 00     .6...6...6...6..
     1ac:	b1 36 00 00 b9 36 00 00 c1 36 00 00 c9 36 00 00     .6...6...6...6..
     1bc:	d1 36 00 00 d9 36 00 00 e1 36 00 00 e9 36 00 00     .6...6...6...6..
     1cc:	f1 36 00 00 f9 36 00 00 01 37 00 00 09 37 00 00     .6...6...7...7..
     1dc:	11 37 00 00 19 37 00 00 21 37 00 00 29 37 00 00     .7...7..!7..)7..
     1ec:	31 37 00 00 39 37 00 00 41 37 00 00 49 37 00 00     17..97..A7..I7..
     1fc:	51 37 00 00 59 37 00 00 61 37 00 00 69 37 00 00     Q7..Y7..a7..i7..
     20c:	71 37 00 00 79 37 00 00 81 37 00 00 89 37 00 00     q7..y7...7...7..
     21c:	91 37 00 00 99 37 00 00 a1 37 00 00 a9 37 00 00     .7...7...7...7..
     22c:	b1 37 00 00 b9 37 00 00 c1 37 00 00 c9 37 00 00     .7...7...7...7..
     23c:	d1 37 00 00 d9 37 00 00 e1 37 00 00 e9 37 00 00     .7...7...7...7..
     24c:	f1 37 00 00 f9 37 00 00 01 38 00 00 09 38 00 00     .7...7...8...8..
     25c:	11 38 00 00 19 38 00 00 21 38 00 00 29 38 00 00     .8...8..!8..)8..
     26c:	31 38 00 00 39 38 00 00 41 38 00 00 49 38 00 00     18..98..A8..I8..
     27c:	51 38 00 00 59 38 00 00 61 38 00 00 69 38 00 00     Q8..Y8..a8..i8..
     28c:	71 38 00 00 79 38 00 00 81 38 00 00 89 38 00 00     q8..y8...8...8..
     29c:	91 38 00 00 99 38 00 00 a1 38 00 00 a9 38 00 00     .8...8...8...8..
     2ac:	b1 38 00 00                                         .8..

000002b0 <__data_section_table>:
     2b0:	00005ff4 	.word	0x00005ff4
     2b4:	20000000 	.word	0x20000000
     2b8:	0000000c 	.word	0x0000000c
     2bc:	00004ff4 	.word	0x00004ff4
     2c0:	04000000 	.word	0x04000000
     2c4:	00001000 	.word	0x00001000
     2c8:	00005ff4 	.word	0x00005ff4
     2cc:	20060000 	.word	0x20060000
     2d0:	00000000 	.word	0x00000000
     2d4:	00005ff4 	.word	0x00005ff4
     2d8:	400ba000 	.word	0x400ba000
     2dc:	00000000 	.word	0x00000000

000002e0 <__bss_section_table>:
     2e0:	2000000c 	.word	0x2000000c
     2e4:	00000344 	.word	0x00000344
     2e8:	04001000 	.word	0x04001000
     2ec:	00000000 	.word	0x00000000
     2f0:	20060000 	.word	0x20060000
     2f4:	00000000 	.word	0x00000000
     2f8:	400ba000 	.word	0x400ba000
     2fc:	00000000 	.word	0x00000000

00000300 <ResetISR>:
     300:	b672      	cpsid	i
     302:	4b13      	ldr	r3, [pc, #76]	@ (350 <ResetISR+0x50>)
     304:	4a13      	ldr	r2, [pc, #76]	@ (354 <ResetISR+0x54>)
     306:	4817      	ldr	r0, [pc, #92]	@ (364 <ResetISR+0x64>)
     308:	6003      	str	r3, [r0, #0]
     30a:	6819      	ldr	r1, [r3, #0]
     30c:	f381 8808 	msr	MSP, r1
     310:	f382 880a 	msr	MSPLIM, r2
     314:	f001 faf4 	bl	1900 <SystemInit>
     318:	4b0f      	ldr	r3, [pc, #60]	@ (358 <ResetISR+0x58>)
     31a:	e007      	b.n	32c <ResetISR+0x2c>
     31c:	f103 040c 	add.w	r4, r3, #12
     320:	689a      	ldr	r2, [r3, #8]
     322:	6859      	ldr	r1, [r3, #4]
     324:	6818      	ldr	r0, [r3, #0]
     326:	f000 f81f 	bl	368 <data_init>
     32a:	4623      	mov	r3, r4
     32c:	4a0b      	ldr	r2, [pc, #44]	@ (35c <ResetISR+0x5c>)
     32e:	4293      	cmp	r3, r2
     330:	d3f4      	bcc.n	31c <ResetISR+0x1c>
     332:	e006      	b.n	342 <ResetISR+0x42>
     334:	461c      	mov	r4, r3
     336:	6859      	ldr	r1, [r3, #4]
     338:	f854 0b08 	ldr.w	r0, [r4], #8
     33c:	f000 f823 	bl	386 <bss_init>
     340:	4623      	mov	r3, r4
     342:	4a07      	ldr	r2, [pc, #28]	@ (360 <ResetISR+0x60>)
     344:	4293      	cmp	r3, r2
     346:	d3f5      	bcc.n	334 <ResetISR+0x34>
     348:	b662      	cpsie	i
     34a:	f003 ff99 	bl	4280 <__main>
     34e:	e7fe      	b.n	34e <ResetISR+0x4e>
     350:	00000000 	.word	0x00000000
     354:	2005f000 	.word	0x2005f000
     358:	000002b0 	.word	0x000002b0
     35c:	000002e0 	.word	0x000002e0
     360:	00000300 	.word	0x00000300
     364:	e000ed08 	.word	0xe000ed08

00000368 <data_init>:
     368:	2300      	movs	r3, #0
     36a:	4293      	cmp	r3, r2
     36c:	d20a      	bcs.n	384 <data_init+0x1c>
     36e:	b410      	push	{r4}
     370:	f850 4b04 	ldr.w	r4, [r0], #4
     374:	f841 4b04 	str.w	r4, [r1], #4
     378:	3304      	adds	r3, #4
     37a:	4293      	cmp	r3, r2
     37c:	d3f8      	bcc.n	370 <data_init+0x8>
     37e:	f85d 4b04 	ldr.w	r4, [sp], #4
     382:	4770      	bx	lr
     384:	4770      	bx	lr

00000386 <bss_init>:
     386:	2300      	movs	r3, #0
     388:	e003      	b.n	392 <bss_init+0xc>
     38a:	2200      	movs	r2, #0
     38c:	f840 2b04 	str.w	r2, [r0], #4
     390:	3304      	adds	r3, #4
     392:	428b      	cmp	r3, r1
     394:	d3f9      	bcc.n	38a <bss_init+0x4>
     396:	4770      	bx	lr

00000398 <NMI_Handler>:
     398:	e7fe      	b.n	398 <NMI_Handler>
     39a:	e7fe      	b.n	39a <NMI_Handler+0x2>

0000039c <MemManage_Handler>:
     39c:	e7fe      	b.n	39c <MemManage_Handler>

0000039e <BusFault_Handler>:
     39e:	e7fe      	b.n	39e <BusFault_Handler>

000003a0 <UsageFault_Handler>:
     3a0:	e7fe      	b.n	3a0 <UsageFault_Handler>

000003a2 <SecureFault_Handler>:
     3a2:	e7fe      	b.n	3a2 <SecureFault_Handler>

000003a4 <SVC_Handler>:
     3a4:	e7fe      	b.n	3a4 <SVC_Handler>

000003a6 <DebugMon_Handler>:
     3a6:	e7fe      	b.n	3a6 <DebugMon_Handler>

000003a8 <PendSV_Handler>:
     3a8:	e7fe      	b.n	3a8 <PendSV_Handler>

000003aa <SysTick_Handler>:
     3aa:	e7fe      	b.n	3aa <SysTick_Handler>

000003ac <ADC0_DriverIRQHandler>:
     3ac:	e7fe      	b.n	3ac <ADC0_DriverIRQHandler>
     3ae:	Address 0x3ae is out of bounds.


000003b0 <__assertion_failed>:
     3b0:	b580      	push	{r7, lr}
     3b2:	b082      	sub	sp, #8
     3b4:	af00      	add	r7, sp, #0
     3b6:	6078      	str	r0, [r7, #4]
     3b8:	6879      	ldr	r1, [r7, #4]
     3ba:	4802      	ldr	r0, [pc, #8]	@ (3c4 <__assertion_failed+0x14>)
     3bc:	f002 fce3 	bl	2d86 <DbgConsole_Printf>
     3c0:	be00      	bkpt	0x0000
     3c2:	e7fd      	b.n	3c0 <__assertion_failed+0x10>
     3c4:	00004750 	.word	0x00004750

000003c8 <DbgConsole_SendDataReliable>:
     3c8:	b580      	push	{r7, lr}
     3ca:	b084      	sub	sp, #16
     3cc:	af00      	add	r7, sp, #0
     3ce:	6078      	str	r0, [r7, #4]
     3d0:	6039      	str	r1, [r7, #0]
     3d2:	687b      	ldr	r3, [r7, #4]
     3d4:	2b00      	cmp	r3, #0
     3d6:	d0fc      	beq.n	3d2 <DbgConsole_SendDataReliable+0xa>
     3d8:	683b      	ldr	r3, [r7, #0]
     3da:	2b00      	cmp	r3, #0
     3dc:	d101      	bne.n	3e2 <DbgConsole_SendDataReliable+0x1a>
     3de:	2300      	movs	r3, #0
     3e0:	e013      	b.n	40a <DbgConsole_SendDataReliable+0x42>
     3e2:	4b0c      	ldr	r3, [pc, #48]	@ (414 <DbgConsole_SendDataReliable+0x4c>)
     3e4:	681b      	ldr	r3, [r3, #0]
     3e6:	2b00      	cmp	r3, #0
     3e8:	d101      	bne.n	3ee <DbgConsole_SendDataReliable+0x26>
     3ea:	2300      	movs	r3, #0
     3ec:	e00d      	b.n	40a <DbgConsole_SendDataReliable+0x42>
     3ee:	683a      	ldr	r2, [r7, #0]
     3f0:	6879      	ldr	r1, [r7, #4]
     3f2:	4809      	ldr	r0, [pc, #36]	@ (418 <DbgConsole_SendDataReliable+0x50>)
     3f4:	f003 fe52 	bl	409c <SerialManager_WriteBlocking>
     3f8:	4603      	mov	r3, r0
     3fa:	81fb      	strh	r3, [r7, #14]
     3fc:	89fb      	ldrh	r3, [r7, #14]
     3fe:	2b00      	cmp	r3, #0
     400:	d101      	bne.n	406 <DbgConsole_SendDataReliable+0x3e>
     402:	683b      	ldr	r3, [r7, #0]
     404:	e001      	b.n	40a <DbgConsole_SendDataReliable+0x42>
     406:	f04f 33ff 	mov.w	r3, #4294967295
     40a:	4618      	mov	r0, r3
     40c:	3710      	adds	r7, #16
     40e:	46bd      	mov	sp, r7
     410:	bd80      	pop	{r7, pc}
     412:	bf00      	nop
     414:	2000002c 	.word	0x2000002c
     418:	20000024 	.word	0x20000024

0000041c <DbgConsole_Init>:
     41c:	b580      	push	{r7, lr}
     41e:	b08e      	sub	sp, #56	@ 0x38
     420:	af00      	add	r7, sp, #0
     422:	60b9      	str	r1, [r7, #8]
     424:	607b      	str	r3, [r7, #4]
     426:	4603      	mov	r3, r0
     428:	73fb      	strb	r3, [r7, #15]
     42a:	4613      	mov	r3, r2
     42c:	73bb      	strb	r3, [r7, #14]
     42e:	f107 0324 	add.w	r3, r7, #36	@ 0x24
     432:	2200      	movs	r2, #0
     434:	601a      	str	r2, [r3, #0]
     436:	605a      	str	r2, [r3, #4]
     438:	609a      	str	r2, [r3, #8]
     43a:	60da      	str	r2, [r3, #12]
     43c:	2300      	movs	r3, #0
     43e:	86fb      	strh	r3, [r7, #54]	@ 0x36
     440:	687b      	ldr	r3, [r7, #4]
     442:	613b      	str	r3, [r7, #16]
     444:	68bb      	ldr	r3, [r7, #8]
     446:	617b      	str	r3, [r7, #20]
     448:	2300      	movs	r3, #0
     44a:	763b      	strb	r3, [r7, #24]
     44c:	2300      	movs	r3, #0
     44e:	767b      	strb	r3, [r7, #25]
     450:	2301      	movs	r3, #1
     452:	76bb      	strb	r3, [r7, #26]
     454:	2301      	movs	r3, #1
     456:	76fb      	strb	r3, [r7, #27]
     458:	2300      	movs	r3, #0
     45a:	773b      	strb	r3, [r7, #28]
     45c:	2300      	movs	r3, #0
     45e:	777b      	strb	r3, [r7, #29]
     460:	7bfb      	ldrb	r3, [r7, #15]
     462:	77bb      	strb	r3, [r7, #30]
     464:	2300      	movs	r3, #0
     466:	77fb      	strb	r3, [r7, #31]
     468:	2300      	movs	r3, #0
     46a:	f887 3020 	strb.w	r3, [r7, #32]
     46e:	7bbb      	ldrb	r3, [r7, #14]
     470:	f887 302c 	strb.w	r3, [r7, #44]	@ 0x2c
     474:	f648 7341 	movw	r3, #36673	@ 0x8f41
     478:	85fb      	strh	r3, [r7, #46]	@ 0x2e
     47a:	7bbb      	ldrb	r3, [r7, #14]
     47c:	2b01      	cmp	r3, #1
     47e:	d103      	bne.n	488 <DbgConsole_Init+0x6c>
     480:	f107 0310 	add.w	r3, r7, #16
     484:	633b      	str	r3, [r7, #48]	@ 0x30
     486:	e01e      	b.n	4c6 <DbgConsole_Init+0xaa>
     488:	7bbb      	ldrb	r3, [r7, #14]
     48a:	2b02      	cmp	r3, #2
     48c:	d103      	bne.n	496 <DbgConsole_Init+0x7a>
     48e:	f243 5321 	movw	r3, #13601	@ 0x3521
     492:	86fb      	strh	r3, [r7, #54]	@ 0x36
     494:	e017      	b.n	4c6 <DbgConsole_Init+0xaa>
     496:	7bbb      	ldrb	r3, [r7, #14]
     498:	2b03      	cmp	r3, #3
     49a:	d103      	bne.n	4a4 <DbgConsole_Init+0x88>
     49c:	f243 5321 	movw	r3, #13601	@ 0x3521
     4a0:	86fb      	strh	r3, [r7, #54]	@ 0x36
     4a2:	e010      	b.n	4c6 <DbgConsole_Init+0xaa>
     4a4:	7bbb      	ldrb	r3, [r7, #14]
     4a6:	2b04      	cmp	r3, #4
     4a8:	d103      	bne.n	4b2 <DbgConsole_Init+0x96>
     4aa:	f243 5321 	movw	r3, #13601	@ 0x3521
     4ae:	86fb      	strh	r3, [r7, #54]	@ 0x36
     4b0:	e009      	b.n	4c6 <DbgConsole_Init+0xaa>
     4b2:	7bbb      	ldrb	r3, [r7, #14]
     4b4:	2b09      	cmp	r3, #9
     4b6:	d103      	bne.n	4c0 <DbgConsole_Init+0xa4>
     4b8:	f243 5321 	movw	r3, #13601	@ 0x3521
     4bc:	86fb      	strh	r3, [r7, #54]	@ 0x36
     4be:	e002      	b.n	4c6 <DbgConsole_Init+0xaa>
     4c0:	f243 5321 	movw	r3, #13601	@ 0x3521
     4c4:	86fb      	strh	r3, [r7, #54]	@ 0x36
     4c6:	8efb      	ldrh	r3, [r7, #54]	@ 0x36
     4c8:	f243 5221 	movw	r2, #13601	@ 0x3521
     4cc:	4293      	cmp	r3, r2
     4ce:	d030      	beq.n	532 <DbgConsole_Init+0x116>
     4d0:	2220      	movs	r2, #32
     4d2:	2100      	movs	r1, #0
     4d4:	4819      	ldr	r0, [pc, #100]	@ (53c <DbgConsole_Init+0x120>)
     4d6:	f003 fedc 	bl	4292 <memset>
     4da:	4b18      	ldr	r3, [pc, #96]	@ (53c <DbgConsole_Init+0x120>)
     4dc:	4a18      	ldr	r2, [pc, #96]	@ (540 <DbgConsole_Init+0x124>)
     4de:	601a      	str	r2, [r3, #0]
     4e0:	4b16      	ldr	r3, [pc, #88]	@ (53c <DbgConsole_Init+0x120>)
     4e2:	681b      	ldr	r3, [r3, #0]
     4e4:	f107 0224 	add.w	r2, r7, #36	@ 0x24
     4e8:	4611      	mov	r1, r2
     4ea:	4618      	mov	r0, r3
     4ec:	f003 fd4e 	bl	3f8c <SerialManager_Init>
     4f0:	4603      	mov	r3, r0
     4f2:	86fb      	strh	r3, [r7, #54]	@ 0x36
     4f4:	8efb      	ldrh	r3, [r7, #54]	@ 0x36
     4f6:	2b00      	cmp	r3, #0
     4f8:	d1fc      	bne.n	4f4 <DbgConsole_Init+0xd8>
     4fa:	4b12      	ldr	r3, [pc, #72]	@ (544 <DbgConsole_Init+0x128>)
     4fc:	781b      	ldrb	r3, [r3, #0]
     4fe:	4b0f      	ldr	r3, [pc, #60]	@ (53c <DbgConsole_Init+0x120>)
     500:	681b      	ldr	r3, [r3, #0]
     502:	4911      	ldr	r1, [pc, #68]	@ (548 <DbgConsole_Init+0x12c>)
     504:	4618      	mov	r0, r3
     506:	f003 fd71 	bl	3fec <SerialManager_OpenWriteHandle>
     50a:	4603      	mov	r3, r0
     50c:	86fb      	strh	r3, [r7, #54]	@ 0x36
     50e:	8efb      	ldrh	r3, [r7, #54]	@ 0x36
     510:	2b00      	cmp	r3, #0
     512:	d1fc      	bne.n	50e <DbgConsole_Init+0xf2>
     514:	4b09      	ldr	r3, [pc, #36]	@ (53c <DbgConsole_Init+0x120>)
     516:	681b      	ldr	r3, [r3, #0]
     518:	490c      	ldr	r1, [pc, #48]	@ (54c <DbgConsole_Init+0x130>)
     51a:	4618      	mov	r0, r3
     51c:	f003 fd8e 	bl	403c <SerialManager_OpenReadHandle>
     520:	4603      	mov	r3, r0
     522:	86fb      	strh	r3, [r7, #54]	@ 0x36
     524:	8efb      	ldrh	r3, [r7, #54]	@ 0x36
     526:	2b00      	cmp	r3, #0
     528:	d1fc      	bne.n	524 <DbgConsole_Init+0x108>
     52a:	4b04      	ldr	r3, [pc, #16]	@ (53c <DbgConsole_Init+0x120>)
     52c:	681b      	ldr	r3, [r3, #0]
     52e:	4a08      	ldr	r2, [pc, #32]	@ (550 <DbgConsole_Init+0x134>)
     530:	6013      	str	r3, [r2, #0]
     532:	8efb      	ldrh	r3, [r7, #54]	@ 0x36
     534:	4618      	mov	r0, r3
     536:	3738      	adds	r7, #56	@ 0x38
     538:	46bd      	mov	sp, r7
     53a:	bd80      	pop	{r7, pc}
     53c:	2000000c 	.word	0x2000000c
     540:	20000010 	.word	0x20000010
     544:	2000034c 	.word	0x2000034c
     548:	20000024 	.word	0x20000024
     54c:	20000028 	.word	0x20000028
     550:	2000002c 	.word	0x2000002c

00000554 <DbgConsole_Vprintf>:
     554:	b580      	push	{r7, lr}
     556:	b0a4      	sub	sp, #144	@ 0x90
     558:	af00      	add	r7, sp, #0
     55a:	6078      	str	r0, [r7, #4]
     55c:	6039      	str	r1, [r7, #0]
     55e:	2300      	movs	r3, #0
     560:	f8c7 3088 	str.w	r3, [r7, #136]	@ 0x88
     564:	2300      	movs	r3, #0
     566:	f8c7 308c 	str.w	r3, [r7, #140]	@ 0x8c
     56a:	2300      	movs	r3, #0
     56c:	60bb      	str	r3, [r7, #8]
     56e:	f107 030c 	add.w	r3, r7, #12
     572:	227c      	movs	r2, #124	@ 0x7c
     574:	2100      	movs	r1, #0
     576:	4618      	mov	r0, r3
     578:	f003 fe8b 	bl	4292 <memset>
     57c:	4b0e      	ldr	r3, [pc, #56]	@ (5b8 <DbgConsole_Vprintf+0x64>)
     57e:	681b      	ldr	r3, [r3, #0]
     580:	2b00      	cmp	r3, #0
     582:	d012      	beq.n	5aa <DbgConsole_Vprintf+0x56>
     584:	f107 0208 	add.w	r2, r7, #8
     588:	4b0c      	ldr	r3, [pc, #48]	@ (5bc <DbgConsole_Vprintf+0x68>)
     58a:	6839      	ldr	r1, [r7, #0]
     58c:	6878      	ldr	r0, [r7, #4]
     58e:	f002 fdcd 	bl	312c <StrFormatPrintf>
     592:	f8c7 0088 	str.w	r0, [r7, #136]	@ 0x88
     596:	f8d7 2088 	ldr.w	r2, [r7, #136]	@ 0x88
     59a:	f107 0308 	add.w	r3, r7, #8
     59e:	4611      	mov	r1, r2
     5a0:	4618      	mov	r0, r3
     5a2:	f7ff ff11 	bl	3c8 <DbgConsole_SendDataReliable>
     5a6:	f8c7 008c 	str.w	r0, [r7, #140]	@ 0x8c
     5aa:	f8d7 308c 	ldr.w	r3, [r7, #140]	@ 0x8c
     5ae:	4618      	mov	r0, r3
     5b0:	3790      	adds	r7, #144	@ 0x90
     5b2:	46bd      	mov	sp, r7
     5b4:	bd80      	pop	{r7, pc}
     5b6:	bf00      	nop
     5b8:	2000002c 	.word	0x2000002c
     5bc:	00002d21 	.word	0x00002d21

000005c0 <ezbuild__add_label>:
     5c0:	b580      	push	{r7, lr}
     5c2:	b084      	sub	sp, #16
     5c4:	af00      	add	r7, sp, #0
     5c6:	6078      	str	r0, [r7, #4]
     5c8:	6039      	str	r1, [r7, #0]
     5ca:	2300      	movs	r3, #0
     5cc:	73fb      	strb	r3, [r7, #15]
     5ce:	2300      	movs	r3, #0
     5d0:	60bb      	str	r3, [r7, #8]
     5d2:	4b1f      	ldr	r3, [pc, #124]	@ (650 <ezbuild__add_label+0x90>)
     5d4:	681b      	ldr	r3, [r3, #0]
     5d6:	2b1f      	cmp	r3, #31
     5d8:	d902      	bls.n	5e0 <ezbuild__add_label+0x20>
     5da:	2301      	movs	r3, #1
     5dc:	73fb      	strb	r3, [r7, #15]
     5de:	e032      	b.n	646 <ezbuild__add_label+0x86>
     5e0:	f107 0308 	add.w	r3, r7, #8
     5e4:	4619      	mov	r1, r3
     5e6:	6878      	ldr	r0, [r7, #4]
     5e8:	f000 f83a 	bl	660 <ezbuild__label_get_address>
     5ec:	4603      	mov	r3, r0
     5ee:	f083 0301 	eor.w	r3, r3, #1
     5f2:	b2db      	uxtb	r3, r3
     5f4:	2b00      	cmp	r3, #0
     5f6:	d024      	beq.n	642 <ezbuild__add_label+0x82>
     5f8:	4b16      	ldr	r3, [pc, #88]	@ (654 <ezbuild__add_label+0x94>)
     5fa:	681b      	ldr	r3, [r3, #0]
     5fc:	0099      	lsls	r1, r3, #2
     5fe:	4b16      	ldr	r3, [pc, #88]	@ (658 <ezbuild__add_label+0x98>)
     600:	681a      	ldr	r2, [r3, #0]
     602:	4b13      	ldr	r3, [pc, #76]	@ (650 <ezbuild__add_label+0x90>)
     604:	681b      	ldr	r3, [r3, #0]
     606:	440a      	add	r2, r1
     608:	4914      	ldr	r1, [pc, #80]	@ (65c <ezbuild__add_label+0x9c>)
     60a:	00db      	lsls	r3, r3, #3
     60c:	440b      	add	r3, r1
     60e:	605a      	str	r2, [r3, #4]
     610:	4b0f      	ldr	r3, [pc, #60]	@ (650 <ezbuild__add_label+0x90>)
     612:	681b      	ldr	r3, [r3, #0]
     614:	4911      	ldr	r1, [pc, #68]	@ (65c <ezbuild__add_label+0x9c>)
     616:	687a      	ldr	r2, [r7, #4]
     618:	f841 2033 	str.w	r2, [r1, r3, lsl #3]
     61c:	683b      	ldr	r3, [r7, #0]
     61e:	2b00      	cmp	r3, #0
     620:	d007      	beq.n	632 <ezbuild__add_label+0x72>
     622:	4b0b      	ldr	r3, [pc, #44]	@ (650 <ezbuild__add_label+0x90>)
     624:	681b      	ldr	r3, [r3, #0]
     626:	4a0d      	ldr	r2, [pc, #52]	@ (65c <ezbuild__add_label+0x9c>)
     628:	00db      	lsls	r3, r3, #3
     62a:	4413      	add	r3, r2
     62c:	685a      	ldr	r2, [r3, #4]
     62e:	683b      	ldr	r3, [r7, #0]
     630:	601a      	str	r2, [r3, #0]
     632:	4b07      	ldr	r3, [pc, #28]	@ (650 <ezbuild__add_label+0x90>)
     634:	681b      	ldr	r3, [r3, #0]
     636:	3301      	adds	r3, #1
     638:	4a05      	ldr	r2, [pc, #20]	@ (650 <ezbuild__add_label+0x90>)
     63a:	6013      	str	r3, [r2, #0]
     63c:	2300      	movs	r3, #0
     63e:	73fb      	strb	r3, [r7, #15]
     640:	e001      	b.n	646 <ezbuild__add_label+0x86>
     642:	2302      	movs	r3, #2
     644:	73fb      	strb	r3, [r7, #15]
     646:	7bfb      	ldrb	r3, [r7, #15]
     648:	4618      	mov	r0, r3
     64a:	3710      	adds	r7, #16
     64c:	46bd      	mov	sp, r7
     64e:	bd80      	pop	{r7, pc}
     650:	20000138 	.word	0x20000138
     654:	20000034 	.word	0x20000034
     658:	2000013c 	.word	0x2000013c
     65c:	20000038 	.word	0x20000038

00000660 <ezbuild__label_get_address>:
     660:	b580      	push	{r7, lr}
     662:	b084      	sub	sp, #16
     664:	af00      	add	r7, sp, #0
     666:	6078      	str	r0, [r7, #4]
     668:	6039      	str	r1, [r7, #0]
     66a:	2300      	movs	r3, #0
     66c:	60fb      	str	r3, [r7, #12]
     66e:	e01c      	b.n	6aa <ezbuild__label_get_address+0x4a>
     670:	4a13      	ldr	r2, [pc, #76]	@ (6c0 <ezbuild__label_get_address+0x60>)
     672:	68fb      	ldr	r3, [r7, #12]
     674:	f852 3033 	ldr.w	r3, [r2, r3, lsl #3]
     678:	2b00      	cmp	r3, #0
     67a:	d013      	beq.n	6a4 <ezbuild__label_get_address+0x44>
     67c:	4a10      	ldr	r2, [pc, #64]	@ (6c0 <ezbuild__label_get_address+0x60>)
     67e:	68fb      	ldr	r3, [r7, #12]
     680:	f852 3033 	ldr.w	r3, [r2, r3, lsl #3]
     684:	4619      	mov	r1, r3
     686:	6878      	ldr	r0, [r7, #4]
     688:	f003 fe3e 	bl	4308 <strcmp>
     68c:	4603      	mov	r3, r0
     68e:	2b00      	cmp	r3, #0
     690:	d108      	bne.n	6a4 <ezbuild__label_get_address+0x44>
     692:	4a0b      	ldr	r2, [pc, #44]	@ (6c0 <ezbuild__label_get_address+0x60>)
     694:	68fb      	ldr	r3, [r7, #12]
     696:	00db      	lsls	r3, r3, #3
     698:	4413      	add	r3, r2
     69a:	685a      	ldr	r2, [r3, #4]
     69c:	683b      	ldr	r3, [r7, #0]
     69e:	601a      	str	r2, [r3, #0]
     6a0:	2301      	movs	r3, #1
     6a2:	e008      	b.n	6b6 <ezbuild__label_get_address+0x56>
     6a4:	68fb      	ldr	r3, [r7, #12]
     6a6:	3301      	adds	r3, #1
     6a8:	60fb      	str	r3, [r7, #12]
     6aa:	4b06      	ldr	r3, [pc, #24]	@ (6c4 <ezbuild__label_get_address+0x64>)
     6ac:	681b      	ldr	r3, [r3, #0]
     6ae:	68fa      	ldr	r2, [r7, #12]
     6b0:	429a      	cmp	r2, r3
     6b2:	d3dd      	bcc.n	670 <ezbuild__label_get_address+0x10>
     6b4:	2300      	movs	r3, #0
     6b6:	4618      	mov	r0, r3
     6b8:	3710      	adds	r7, #16
     6ba:	46bd      	mov	sp, r7
     6bc:	bd80      	pop	{r7, pc}
     6be:	bf00      	nop
     6c0:	20000038 	.word	0x20000038
     6c4:	20000138 	.word	0x20000138

000006c8 <ezbuild>:
     6c8:	b580      	push	{r7, lr}
     6ca:	b084      	sub	sp, #16
     6cc:	af00      	add	r7, sp, #0
     6ce:	60f8      	str	r0, [r7, #12]
     6d0:	60b9      	str	r1, [r7, #8]
     6d2:	607a      	str	r2, [r7, #4]
     6d4:	603b      	str	r3, [r7, #0]
     6d6:	683b      	ldr	r3, [r7, #0]
     6d8:	2b00      	cmp	r3, #0
     6da:	d103      	bne.n	6e4 <ezbuild+0x1c>
     6dc:	481b      	ldr	r0, [pc, #108]	@ (74c <ezbuild+0x84>)
     6de:	f002 f9d9 	bl	2a94 <_printf>
     6e2:	e02f      	b.n	744 <ezbuild+0x7c>
     6e4:	4a1a      	ldr	r2, [pc, #104]	@ (750 <ezbuild+0x88>)
     6e6:	68fb      	ldr	r3, [r7, #12]
     6e8:	6013      	str	r3, [r2, #0]
     6ea:	4b1a      	ldr	r3, [pc, #104]	@ (754 <ezbuild+0x8c>)
     6ec:	2200      	movs	r2, #0
     6ee:	601a      	str	r2, [r3, #0]
     6f0:	4b19      	ldr	r3, [pc, #100]	@ (758 <ezbuild+0x90>)
     6f2:	2200      	movs	r2, #0
     6f4:	601a      	str	r2, [r3, #0]
     6f6:	4b19      	ldr	r3, [pc, #100]	@ (75c <ezbuild+0x94>)
     6f8:	2200      	movs	r2, #0
     6fa:	601a      	str	r2, [r3, #0]
     6fc:	4a18      	ldr	r2, [pc, #96]	@ (760 <ezbuild+0x98>)
     6fe:	687b      	ldr	r3, [r7, #4]
     700:	6013      	str	r3, [r2, #0]
     702:	4a18      	ldr	r2, [pc, #96]	@ (764 <ezbuild+0x9c>)
     704:	68bb      	ldr	r3, [r7, #8]
     706:	6013      	str	r3, [r2, #0]
     708:	4817      	ldr	r0, [pc, #92]	@ (768 <ezbuild+0xa0>)
     70a:	f002 f9c3 	bl	2a94 <_printf>
     70e:	4817      	ldr	r0, [pc, #92]	@ (76c <ezbuild+0xa4>)
     710:	f002 f9c0 	bl	2a94 <_printf>
     714:	683b      	ldr	r3, [r7, #0]
     716:	4798      	blx	r3
     718:	4b0f      	ldr	r3, [pc, #60]	@ (758 <ezbuild+0x90>)
     71a:	681b      	ldr	r3, [r3, #0]
     71c:	3301      	adds	r3, #1
     71e:	4a0e      	ldr	r2, [pc, #56]	@ (758 <ezbuild+0x90>)
     720:	6013      	str	r3, [r2, #0]
     722:	4b0c      	ldr	r3, [pc, #48]	@ (754 <ezbuild+0x8c>)
     724:	2200      	movs	r2, #0
     726:	601a      	str	r2, [r3, #0]
     728:	4811      	ldr	r0, [pc, #68]	@ (770 <ezbuild+0xa8>)
     72a:	f002 f9b3 	bl	2a94 <_printf>
     72e:	4811      	ldr	r0, [pc, #68]	@ (774 <ezbuild+0xac>)
     730:	f002 f9b0 	bl	2a94 <_printf>
     734:	683b      	ldr	r3, [r7, #0]
     736:	4798      	blx	r3
     738:	480f      	ldr	r0, [pc, #60]	@ (778 <ezbuild+0xb0>)
     73a:	f002 f9ab 	bl	2a94 <_printf>
     73e:	480d      	ldr	r0, [pc, #52]	@ (774 <ezbuild+0xac>)
     740:	f002 f9a8 	bl	2a94 <_printf>
     744:	3710      	adds	r7, #16
     746:	46bd      	mov	sp, r7
     748:	bd80      	pop	{r7, pc}
     74a:	bf00      	nop
     74c:	00004764 	.word	0x00004764
     750:	20000030 	.word	0x20000030
     754:	20000034 	.word	0x20000034
     758:	20000140 	.word	0x20000140
     75c:	20000138 	.word	0x20000138
     760:	2000013c 	.word	0x2000013c
     764:	20000144 	.word	0x20000144
     768:	000047c8 	.word	0x000047c8
     76c:	000047e0 	.word	0x000047e0
     770:	00004800 	.word	0x00004800
     774:	00004818 	.word	0x00004818
     778:	00004838 	.word	0x00004838

0000077c <ezbuild_add_instruction>:
     77c:	b580      	push	{r7, lr}
     77e:	b082      	sub	sp, #8
     780:	af00      	add	r7, sp, #0
     782:	6078      	str	r0, [r7, #4]
     784:	4b15      	ldr	r3, [pc, #84]	@ (7dc <ezbuild_add_instruction+0x60>)
     786:	681b      	ldr	r3, [r3, #0]
     788:	2b01      	cmp	r3, #1
     78a:	d11d      	bne.n	7c8 <ezbuild_add_instruction+0x4c>
     78c:	4b14      	ldr	r3, [pc, #80]	@ (7e0 <ezbuild_add_instruction+0x64>)
     78e:	681a      	ldr	r2, [r3, #0]
     790:	4b14      	ldr	r3, [pc, #80]	@ (7e4 <ezbuild_add_instruction+0x68>)
     792:	681b      	ldr	r3, [r3, #0]
     794:	429a      	cmp	r2, r3
     796:	d20d      	bcs.n	7b4 <ezbuild_add_instruction+0x38>
     798:	4b13      	ldr	r3, [pc, #76]	@ (7e8 <ezbuild_add_instruction+0x6c>)
     79a:	681a      	ldr	r2, [r3, #0]
     79c:	4b10      	ldr	r3, [pc, #64]	@ (7e0 <ezbuild_add_instruction+0x64>)
     79e:	681b      	ldr	r3, [r3, #0]
     7a0:	009b      	lsls	r3, r3, #2
     7a2:	4413      	add	r3, r2
     7a4:	687a      	ldr	r2, [r7, #4]
     7a6:	601a      	str	r2, [r3, #0]
     7a8:	4b0d      	ldr	r3, [pc, #52]	@ (7e0 <ezbuild_add_instruction+0x64>)
     7aa:	681b      	ldr	r3, [r3, #0]
     7ac:	3301      	adds	r3, #1
     7ae:	4a0c      	ldr	r2, [pc, #48]	@ (7e0 <ezbuild_add_instruction+0x64>)
     7b0:	6013      	str	r3, [r2, #0]
     7b2:	e00e      	b.n	7d2 <ezbuild_add_instruction+0x56>
     7b4:	4b0a      	ldr	r3, [pc, #40]	@ (7e0 <ezbuild_add_instruction+0x64>)
     7b6:	681b      	ldr	r3, [r3, #0]
     7b8:	1c5a      	adds	r2, r3, #1
     7ba:	4909      	ldr	r1, [pc, #36]	@ (7e0 <ezbuild_add_instruction+0x64>)
     7bc:	600a      	str	r2, [r1, #0]
     7be:	4619      	mov	r1, r3
     7c0:	480a      	ldr	r0, [pc, #40]	@ (7ec <ezbuild_add_instruction+0x70>)
     7c2:	f002 f967 	bl	2a94 <_printf>
     7c6:	e004      	b.n	7d2 <ezbuild_add_instruction+0x56>
     7c8:	4b05      	ldr	r3, [pc, #20]	@ (7e0 <ezbuild_add_instruction+0x64>)
     7ca:	681b      	ldr	r3, [r3, #0]
     7cc:	3301      	adds	r3, #1
     7ce:	4a04      	ldr	r2, [pc, #16]	@ (7e0 <ezbuild_add_instruction+0x64>)
     7d0:	6013      	str	r3, [r2, #0]
     7d2:	bf00      	nop
     7d4:	3708      	adds	r7, #8
     7d6:	46bd      	mov	sp, r7
     7d8:	bd80      	pop	{r7, pc}
     7da:	bf00      	nop
     7dc:	20000140 	.word	0x20000140
     7e0:	20000034 	.word	0x20000034
     7e4:	20000144 	.word	0x20000144
     7e8:	20000030 	.word	0x20000030
     7ec:	00004848 	.word	0x00004848

000007f0 <__NVIC_EnableIRQ>:
     7f0:	b480      	push	{r7}
     7f2:	b083      	sub	sp, #12
     7f4:	af00      	add	r7, sp, #0
     7f6:	4603      	mov	r3, r0
     7f8:	80fb      	strh	r3, [r7, #6]
     7fa:	f9b7 3006 	ldrsh.w	r3, [r7, #6]
     7fe:	2b00      	cmp	r3, #0
     800:	db0b      	blt.n	81a <__NVIC_EnableIRQ+0x2a>
     802:	88fb      	ldrh	r3, [r7, #6]
     804:	f003 021f 	and.w	r2, r3, #31
     808:	4907      	ldr	r1, [pc, #28]	@ (828 <__NVIC_EnableIRQ+0x38>)
     80a:	f9b7 3006 	ldrsh.w	r3, [r7, #6]
     80e:	095b      	lsrs	r3, r3, #5
     810:	2001      	movs	r0, #1
     812:	fa00 f202 	lsl.w	r2, r0, r2
     816:	f841 2023 	str.w	r2, [r1, r3, lsl #2]
     81a:	bf00      	nop
     81c:	370c      	adds	r7, #12
     81e:	46bd      	mov	sp, r7
     820:	f85d 7b04 	ldr.w	r7, [sp], #4
     824:	4770      	bx	lr
     826:	bf00      	nop
     828:	e000e100 	.word	0xe000e100

0000082c <__NVIC_DisableIRQ>:
     82c:	b480      	push	{r7}
     82e:	b083      	sub	sp, #12
     830:	af00      	add	r7, sp, #0
     832:	4603      	mov	r3, r0
     834:	80fb      	strh	r3, [r7, #6]
     836:	f9b7 3006 	ldrsh.w	r3, [r7, #6]
     83a:	2b00      	cmp	r3, #0
     83c:	db12      	blt.n	864 <__NVIC_DisableIRQ+0x38>
     83e:	88fb      	ldrh	r3, [r7, #6]
     840:	f003 021f 	and.w	r2, r3, #31
     844:	490a      	ldr	r1, [pc, #40]	@ (870 <__NVIC_DisableIRQ+0x44>)
     846:	f9b7 3006 	ldrsh.w	r3, [r7, #6]
     84a:	095b      	lsrs	r3, r3, #5
     84c:	2001      	movs	r0, #1
     84e:	fa00 f202 	lsl.w	r2, r0, r2
     852:	3320      	adds	r3, #32
     854:	f841 2023 	str.w	r2, [r1, r3, lsl #2]
     858:	f3bf 8f4f 	dsb	sy
     85c:	bf00      	nop
     85e:	f3bf 8f6f 	isb	sy
     862:	bf00      	nop
     864:	bf00      	nop
     866:	370c      	adds	r7, #12
     868:	46bd      	mov	sp, r7
     86a:	f85d 7b04 	ldr.w	r7, [sp], #4
     86e:	4770      	bx	lr
     870:	e000e100 	.word	0xe000e100

00000874 <E_LABEL>:
     874:	b580      	push	{r7, lr}
     876:	b084      	sub	sp, #16
     878:	af00      	add	r7, sp, #0
     87a:	6078      	str	r0, [r7, #4]
     87c:	4b15      	ldr	r3, [pc, #84]	@ (8d4 <E_LABEL+0x60>)
     87e:	681b      	ldr	r3, [r3, #0]
     880:	2b00      	cmp	r3, #0
     882:	d123      	bne.n	8cc <E_LABEL+0x58>
     884:	687b      	ldr	r3, [r7, #4]
     886:	2b00      	cmp	r3, #0
     888:	d106      	bne.n	898 <E_LABEL+0x24>
     88a:	4b13      	ldr	r3, [pc, #76]	@ (8d8 <E_LABEL+0x64>)
     88c:	681b      	ldr	r3, [r3, #0]
     88e:	4619      	mov	r1, r3
     890:	4812      	ldr	r0, [pc, #72]	@ (8dc <E_LABEL+0x68>)
     892:	f002 f8ff 	bl	2a94 <_printf>
     896:	e019      	b.n	8cc <E_LABEL+0x58>
     898:	f107 0308 	add.w	r3, r7, #8
     89c:	4619      	mov	r1, r3
     89e:	6878      	ldr	r0, [r7, #4]
     8a0:	f7ff fe8e 	bl	5c0 <ezbuild__add_label>
     8a4:	4603      	mov	r3, r0
     8a6:	73fb      	strb	r3, [r7, #15]
     8a8:	7bfb      	ldrb	r3, [r7, #15]
     8aa:	2b00      	cmp	r3, #0
     8ac:	d107      	bne.n	8be <E_LABEL+0x4a>
     8ae:	4b0a      	ldr	r3, [pc, #40]	@ (8d8 <E_LABEL+0x64>)
     8b0:	681a      	ldr	r2, [r3, #0]
     8b2:	68bb      	ldr	r3, [r7, #8]
     8b4:	6879      	ldr	r1, [r7, #4]
     8b6:	480a      	ldr	r0, [pc, #40]	@ (8e0 <E_LABEL+0x6c>)
     8b8:	f002 f8ec 	bl	2a94 <_printf>
     8bc:	e006      	b.n	8cc <E_LABEL+0x58>
     8be:	7bfb      	ldrb	r3, [r7, #15]
     8c0:	2b01      	cmp	r3, #1
     8c2:	d103      	bne.n	8cc <E_LABEL+0x58>
     8c4:	2120      	movs	r1, #32
     8c6:	4807      	ldr	r0, [pc, #28]	@ (8e4 <E_LABEL+0x70>)
     8c8:	f002 f8e4 	bl	2a94 <_printf>
     8cc:	bf00      	nop
     8ce:	3710      	adds	r7, #16
     8d0:	46bd      	mov	sp, r7
     8d2:	bd80      	pop	{r7, pc}
     8d4:	20000140 	.word	0x20000140
     8d8:	20000034 	.word	0x20000034
     8dc:	00004884 	.word	0x00004884
     8e0:	000048c8 	.word	0x000048c8
     8e4:	0000493c 	.word	0x0000493c

000008e8 <E_GOSUB>:
     8e8:	b580      	push	{r7, lr}
     8ea:	b084      	sub	sp, #16
     8ec:	af00      	add	r7, sp, #0
     8ee:	6078      	str	r0, [r7, #4]
     8f0:	4b15      	ldr	r3, [pc, #84]	@ (948 <E_GOSUB+0x60>)
     8f2:	681b      	ldr	r3, [r3, #0]
     8f4:	2b01      	cmp	r3, #1
     8f6:	d120      	bne.n	93a <E_GOSUB+0x52>
     8f8:	f107 030c 	add.w	r3, r7, #12
     8fc:	4619      	mov	r1, r3
     8fe:	6878      	ldr	r0, [r7, #4]
     900:	f7ff feae 	bl	660 <ezbuild__label_get_address>
     904:	4603      	mov	r3, r0
     906:	2b00      	cmp	r3, #0
     908:	d00c      	beq.n	924 <E_GOSUB+0x3c>
     90a:	68fb      	ldr	r3, [r7, #12]
     90c:	3303      	adds	r3, #3
     90e:	4618      	mov	r0, r3
     910:	f7ff ff34 	bl	77c <ezbuild_add_instruction>
     914:	68fa      	ldr	r2, [r7, #12]
     916:	4b0d      	ldr	r3, [pc, #52]	@ (94c <E_GOSUB+0x64>)
     918:	681b      	ldr	r3, [r3, #0]
     91a:	6879      	ldr	r1, [r7, #4]
     91c:	480c      	ldr	r0, [pc, #48]	@ (950 <E_GOSUB+0x68>)
     91e:	f002 f8b9 	bl	2a94 <_printf>
     922:	e00d      	b.n	940 <E_GOSUB+0x58>
     924:	4b09      	ldr	r3, [pc, #36]	@ (94c <E_GOSUB+0x64>)
     926:	681b      	ldr	r3, [r3, #0]
     928:	687a      	ldr	r2, [r7, #4]
     92a:	4619      	mov	r1, r3
     92c:	4809      	ldr	r0, [pc, #36]	@ (954 <E_GOSUB+0x6c>)
     92e:	f002 f8b1 	bl	2a94 <_printf>
     932:	2000      	movs	r0, #0
     934:	f7ff ff22 	bl	77c <ezbuild_add_instruction>
     938:	e002      	b.n	940 <E_GOSUB+0x58>
     93a:	2000      	movs	r0, #0
     93c:	f7ff ff1e 	bl	77c <ezbuild_add_instruction>
     940:	bf00      	nop
     942:	3710      	adds	r7, #16
     944:	46bd      	mov	sp, r7
     946:	bd80      	pop	{r7, pc}
     948:	20000140 	.word	0x20000140
     94c:	20000034 	.word	0x20000034
     950:	00004994 	.word	0x00004994
     954:	00004a0c 	.word	0x00004a0c

00000958 <E_LOAD_IMM>:
     958:	b580      	push	{r7, lr}
     95a:	b082      	sub	sp, #8
     95c:	af00      	add	r7, sp, #0
     95e:	6078      	str	r0, [r7, #4]
     960:	6039      	str	r1, [r7, #0]
     962:	687b      	ldr	r3, [r7, #4]
     964:	029a      	lsls	r2, r3, #10
     966:	683b      	ldr	r3, [r7, #0]
     968:	0519      	lsls	r1, r3, #20
     96a:	4b06      	ldr	r3, [pc, #24]	@ (984 <E_LOAD_IMM+0x2c>)
     96c:	400b      	ands	r3, r1
     96e:	4413      	add	r3, r2
     970:	f503 2380 	add.w	r3, r3, #262144	@ 0x40000
     974:	4618      	mov	r0, r3
     976:	f7ff ff01 	bl	77c <ezbuild_add_instruction>
     97a:	bf00      	nop
     97c:	3708      	adds	r7, #8
     97e:	46bd      	mov	sp, r7
     980:	bd80      	pop	{r7, pc}
     982:	bf00      	nop
     984:	7ff00000 	.word	0x7ff00000

00000988 <ezh_4_bit_counter_app>:
     988:	b580      	push	{r7, lr}
     98a:	af00      	add	r7, sp, #0
     98c:	f003 f82f 	bl	39ee <E_NOP>
     990:	493c      	ldr	r1, [pc, #240]	@ (a84 <ezh_4_bit_counter_app+0xfc>)
     992:	2006      	movs	r0, #6
     994:	f003 f84a 	bl	3a2c <E_PER_READ>
     998:	2202      	movs	r2, #2
     99a:	2106      	movs	r1, #6
     99c:	2006      	movs	r0, #6
     99e:	f003 f8bd 	bl	3b1c <E_LSR>
     9a2:	2202      	movs	r2, #2
     9a4:	2106      	movs	r1, #6
     9a6:	2006      	movs	r0, #6
     9a8:	f003 f8a0 	bl	3aec <E_LSL>
     9ac:	2200      	movs	r2, #0
     9ae:	2106      	movs	r1, #6
     9b0:	200c      	movs	r0, #12
     9b2:	f003 f823 	bl	39fc <E_LDR>
     9b6:	2201      	movs	r2, #1
     9b8:	2106      	movs	r1, #6
     9ba:	2007      	movs	r0, #7
     9bc:	f003 f81e 	bl	39fc <E_LDR>
     9c0:	2216      	movs	r2, #22
     9c2:	2109      	movs	r1, #9
     9c4:	2009      	movs	r0, #9
     9c6:	f003 f8dd 	bl	3b84 <E_BSET_IMM>
     9ca:	2217      	movs	r2, #23
     9cc:	2109      	movs	r1, #9
     9ce:	2009      	movs	r0, #9
     9d0:	f003 f8d8 	bl	3b84 <E_BSET_IMM>
     9d4:	2218      	movs	r2, #24
     9d6:	2109      	movs	r1, #9
     9d8:	2009      	movs	r0, #9
     9da:	f003 f8d3 	bl	3b84 <E_BSET_IMM>
     9de:	2219      	movs	r2, #25
     9e0:	2109      	movs	r1, #9
     9e2:	2009      	movs	r0, #9
     9e4:	f003 f8ce 	bl	3b84 <E_BSET_IMM>
     9e8:	221b      	movs	r2, #27
     9ea:	2109      	movs	r1, #9
     9ec:	2009      	movs	r0, #9
     9ee:	f003 f8af 	bl	3b50 <E_BCLR_IMM>
     9f2:	2216      	movs	r2, #22
     9f4:	2108      	movs	r1, #8
     9f6:	2008      	movs	r0, #8
     9f8:	f003 f8c4 	bl	3b84 <E_BSET_IMM>
     9fc:	2217      	movs	r2, #23
     9fe:	2108      	movs	r1, #8
     a00:	2008      	movs	r0, #8
     a02:	f003 f8bf 	bl	3b84 <E_BSET_IMM>
     a06:	2218      	movs	r2, #24
     a08:	2108      	movs	r1, #8
     a0a:	2008      	movs	r0, #8
     a0c:	f003 f8ba 	bl	3b84 <E_BSET_IMM>
     a10:	2219      	movs	r2, #25
     a12:	2108      	movs	r1, #8
     a14:	2008      	movs	r0, #8
     a16:	f003 f8b5 	bl	3b84 <E_BSET_IMM>
     a1a:	f249 2075 	movw	r0, #37493	@ 0x9275
     a1e:	f003 f8e6 	bl	3bee <E_HEART_RYTHM_IMM>
     a22:	2100      	movs	r1, #0
     a24:	2000      	movs	r0, #0
     a26:	f7ff ff97 	bl	958 <E_LOAD_IMM>
     a2a:	4817      	ldr	r0, [pc, #92]	@ (a88 <ezh_4_bit_counter_app+0x100>)
     a2c:	f7ff ff22 	bl	874 <E_LABEL>
     a30:	2201      	movs	r2, #1
     a32:	2100      	movs	r1, #0
     a34:	2000      	movs	r0, #0
     a36:	f003 f829 	bl	3a8c <E_ADD_IMM>
     a3a:	220f      	movs	r2, #15
     a3c:	2100      	movs	r1, #0
     a3e:	2000      	movs	r0, #0
     a40:	f003 f83c 	bl	3abc <E_AND_IMM>
     a44:	2216      	movs	r2, #22
     a46:	2100      	movs	r1, #0
     a48:	2008      	movs	r0, #8
     a4a:	f003 f84f 	bl	3aec <E_LSL>
     a4e:	221b      	movs	r2, #27
     a50:	210e      	movs	r1, #14
     a52:	2001      	movs	r0, #1
     a54:	f003 f8b0 	bl	3bb8 <E_BTST_IMMS>
     a58:	2304      	movs	r3, #4
     a5a:	220d      	movs	r2, #13
     a5c:	210d      	movs	r1, #13
     a5e:	2003      	movs	r0, #3
     a60:	f002 fffa 	bl	3a58 <E_COND_ADD>
     a64:	f249 207c 	movw	r0, #37500	@ 0x927c
     a68:	f003 f8c1 	bl	3bee <E_HEART_RYTHM_IMM>
     a6c:	f644 103e 	movw	r0, #18750	@ 0x493e
     a70:	f003 f8bd 	bl	3bee <E_HEART_RYTHM_IMM>
     a74:	f003 f8c9 	bl	3c0a <E_WAIT_FOR_BEAT>
     a78:	4803      	ldr	r0, [pc, #12]	@ (a88 <ezh_4_bit_counter_app+0x100>)
     a7a:	f7ff ff35 	bl	8e8 <E_GOSUB>
     a7e:	bf00      	nop
     a80:	bd80      	pop	{r7, pc}
     a82:	bf00      	nop
     a84:	40033040 	.word	0x40033040
     a88:	00004a5c 	.word	0x00004a5c

00000a8c <main>:
     a8c:	b580      	push	{r7, lr}
     a8e:	af00      	add	r7, sp, #0
     a90:	f003 fbf0 	bl	4274 <BOARD_InitBootPins>
     a94:	f003 fb97 	bl	41c6 <BOARD_InitBootClocks>
     a98:	f003 fb9b 	bl	41d2 <BOARD_InitBootPeripherals>
     a9c:	f001 f8a0 	bl	1be0 <BOARD_InitDebugConsole>
     aa0:	481b      	ldr	r0, [pc, #108]	@ (b10 <main+0x84>)
     aa2:	f002 f970 	bl	2d86 <DbgConsole_Printf>
     aa6:	200f      	movs	r0, #15
     aa8:	f002 ff06 	bl	38b8 <CLOCK_EnableClock>
     aac:	2207      	movs	r2, #7
     aae:	2102      	movs	r1, #2
     ab0:	4818      	ldr	r0, [pc, #96]	@ (b14 <main+0x88>)
     ab2:	f002 ff7d 	bl	39b0 <PORT_SetPinMux>
     ab6:	2207      	movs	r2, #7
     ab8:	2103      	movs	r1, #3
     aba:	4816      	ldr	r0, [pc, #88]	@ (b14 <main+0x88>)
     abc:	f002 ff78 	bl	39b0 <PORT_SetPinMux>
     ac0:	2207      	movs	r2, #7
     ac2:	2104      	movs	r1, #4
     ac4:	4813      	ldr	r0, [pc, #76]	@ (b14 <main+0x88>)
     ac6:	f002 ff73 	bl	39b0 <PORT_SetPinMux>
     aca:	2207      	movs	r2, #7
     acc:	2105      	movs	r1, #5
     ace:	4811      	ldr	r0, [pc, #68]	@ (b14 <main+0x88>)
     ad0:	f002 ff6e 	bl	39b0 <PORT_SetPinMux>
     ad4:	4810      	ldr	r0, [pc, #64]	@ (b18 <main+0x8c>)
     ad6:	f003 f9d1 	bl	3e7c <RESET_PeripheralReset>
     ada:	f240 101f 	movw	r0, #287	@ 0x11f
     ade:	f002 feeb 	bl	38b8 <CLOCK_EnableClock>
     ae2:	2035      	movs	r0, #53	@ 0x35
     ae4:	f002 ff4b 	bl	397e <DisableIRQ>
     ae8:	2035      	movs	r0, #53	@ 0x35
     aea:	f002 ff2f 	bl	394c <EnableIRQ>
     aee:	4b0b      	ldr	r3, [pc, #44]	@ (b1c <main+0x90>)
     af0:	f04f 6280 	mov.w	r2, #67108864	@ 0x4000000
     af4:	f44f 5180 	mov.w	r1, #4096	@ 0x1000
     af8:	4809      	ldr	r0, [pc, #36]	@ (b20 <main+0x94>)
     afa:	f7ff fde5 	bl	6c8 <ezbuild>
     afe:	4b09      	ldr	r3, [pc, #36]	@ (b24 <main+0x98>)
     b00:	681b      	ldr	r3, [r3, #0]
     b02:	3301      	adds	r3, #1
     b04:	4a07      	ldr	r2, [pc, #28]	@ (b24 <main+0x98>)
     b06:	6013      	str	r3, [r2, #0]
     b08:	bf00      	nop
     b0a:	bf00      	nop
     b0c:	e7f7      	b.n	afe <main+0x72>
     b0e:	bf00      	nop
     b10:	00004a70 	.word	0x00004a70
     b14:	40118000 	.word	0x40118000
     b18:	0001001f 	.word	0x0001001f
     b1c:	00000989 	.word	0x00000989
     b20:	04000000 	.word	0x04000000
     b24:	20000148 	.word	0x20000148

00000b28 <CLOCK_IsPLL0Locked>:
     b28:	b480      	push	{r7}
     b2a:	af00      	add	r7, sp, #0
     b2c:	4b07      	ldr	r3, [pc, #28]	@ (b4c <CLOCK_IsPLL0Locked+0x24>)
     b2e:	f8d3 3500 	ldr.w	r3, [r3, #1280]	@ 0x500
     b32:	f003 7380 	and.w	r3, r3, #16777216	@ 0x1000000
     b36:	2b00      	cmp	r3, #0
     b38:	bf14      	ite	ne
     b3a:	2301      	movne	r3, #1
     b3c:	2300      	moveq	r3, #0
     b3e:	b2db      	uxtb	r3, r3
     b40:	4618      	mov	r0, r3
     b42:	46bd      	mov	sp, r7
     b44:	f85d 7b04 	ldr.w	r7, [sp], #4
     b48:	4770      	bx	lr
     b4a:	bf00      	nop
     b4c:	40044000 	.word	0x40044000

00000b50 <CLOCK_SetupFROHFClocking>:
     b50:	b480      	push	{r7}
     b52:	b083      	sub	sp, #12
     b54:	af00      	add	r7, sp, #0
     b56:	6078      	str	r0, [r7, #4]
     b58:	687b      	ldr	r3, [r7, #4]
     b5a:	4a21      	ldr	r2, [pc, #132]	@ (be0 <CLOCK_SetupFROHFClocking+0x90>)
     b5c:	4293      	cmp	r3, r2
     b5e:	d005      	beq.n	b6c <CLOCK_SetupFROHFClocking+0x1c>
     b60:	687b      	ldr	r3, [r7, #4]
     b62:	4a20      	ldr	r2, [pc, #128]	@ (be4 <CLOCK_SetupFROHFClocking+0x94>)
     b64:	4293      	cmp	r3, r2
     b66:	d001      	beq.n	b6c <CLOCK_SetupFROHFClocking+0x1c>
     b68:	2301      	movs	r3, #1
     b6a:	e032      	b.n	bd2 <CLOCK_SetupFROHFClocking+0x82>
     b6c:	687b      	ldr	r3, [r7, #4]
     b6e:	4a1c      	ldr	r2, [pc, #112]	@ (be0 <CLOCK_SetupFROHFClocking+0x90>)
     b70:	4293      	cmp	r3, r2
     b72:	d001      	beq.n	b78 <CLOCK_SetupFROHFClocking+0x28>
     b74:	2301      	movs	r3, #1
     b76:	e000      	b.n	b7a <CLOCK_SetupFROHFClocking+0x2a>
     b78:	2300      	movs	r3, #0
     b7a:	4a1b      	ldr	r2, [pc, #108]	@ (be8 <CLOCK_SetupFROHFClocking+0x98>)
     b7c:	f8c2 3308 	str.w	r3, [r2, #776]	@ 0x308
     b80:	4b19      	ldr	r3, [pc, #100]	@ (be8 <CLOCK_SetupFROHFClocking+0x98>)
     b82:	f8d3 3300 	ldr.w	r3, [r3, #768]	@ 0x300
     b86:	4a18      	ldr	r2, [pc, #96]	@ (be8 <CLOCK_SetupFROHFClocking+0x98>)
     b88:	f423 0300 	bic.w	r3, r3, #8388608	@ 0x800000
     b8c:	f8c2 3300 	str.w	r3, [r2, #768]	@ 0x300
     b90:	4b15      	ldr	r3, [pc, #84]	@ (be8 <CLOCK_SetupFROHFClocking+0x98>)
     b92:	f8d3 3300 	ldr.w	r3, [r3, #768]	@ 0x300
     b96:	4a14      	ldr	r2, [pc, #80]	@ (be8 <CLOCK_SetupFROHFClocking+0x98>)
     b98:	f043 0310 	orr.w	r3, r3, #16
     b9c:	f8c2 3300 	str.w	r3, [r2, #768]	@ 0x300
     ba0:	4b11      	ldr	r3, [pc, #68]	@ (be8 <CLOCK_SetupFROHFClocking+0x98>)
     ba2:	f8d3 3300 	ldr.w	r3, [r3, #768]	@ 0x300
     ba6:	4a10      	ldr	r2, [pc, #64]	@ (be8 <CLOCK_SetupFROHFClocking+0x98>)
     ba8:	f043 0320 	orr.w	r3, r3, #32
     bac:	f8c2 3300 	str.w	r3, [r2, #768]	@ 0x300
     bb0:	4b0d      	ldr	r3, [pc, #52]	@ (be8 <CLOCK_SetupFROHFClocking+0x98>)
     bb2:	f8d3 3300 	ldr.w	r3, [r3, #768]	@ 0x300
     bb6:	4a0c      	ldr	r2, [pc, #48]	@ (be8 <CLOCK_SetupFROHFClocking+0x98>)
     bb8:	f043 0301 	orr.w	r3, r3, #1
     bbc:	f8c2 3300 	str.w	r3, [r2, #768]	@ 0x300
     bc0:	bf00      	nop
     bc2:	4b09      	ldr	r3, [pc, #36]	@ (be8 <CLOCK_SetupFROHFClocking+0x98>)
     bc4:	f8d3 3300 	ldr.w	r3, [r3, #768]	@ 0x300
     bc8:	f003 7380 	and.w	r3, r3, #16777216	@ 0x1000000
     bcc:	2b00      	cmp	r3, #0
     bce:	d0f8      	beq.n	bc2 <CLOCK_SetupFROHFClocking+0x72>
     bd0:	2300      	movs	r3, #0
     bd2:	4618      	mov	r0, r3
     bd4:	370c      	adds	r7, #12
     bd6:	46bd      	mov	sp, r7
     bd8:	f85d 7b04 	ldr.w	r7, [sp], #4
     bdc:	4770      	bx	lr
     bde:	bf00      	nop
     be0:	02dc6c00 	.word	0x02dc6c00
     be4:	08954400 	.word	0x08954400
     be8:	40044000 	.word	0x40044000

00000bec <CLOCK_SetPll0MonitorMode>:
     bec:	b480      	push	{r7}
     bee:	b085      	sub	sp, #20
     bf0:	af00      	add	r7, sp, #0
     bf2:	6078      	str	r0, [r7, #4]
     bf4:	4b0a      	ldr	r3, [pc, #40]	@ (c20 <CLOCK_SetPll0MonitorMode+0x34>)
     bf6:	f8d3 3500 	ldr.w	r3, [r3, #1280]	@ 0x500
     bfa:	60fb      	str	r3, [r7, #12]
     bfc:	68fb      	ldr	r3, [r7, #12]
     bfe:	f423 3340 	bic.w	r3, r3, #196608	@ 0x30000
     c02:	60fb      	str	r3, [r7, #12]
     c04:	68fa      	ldr	r2, [r7, #12]
     c06:	687b      	ldr	r3, [r7, #4]
     c08:	4313      	orrs	r3, r2
     c0a:	60fb      	str	r3, [r7, #12]
     c0c:	4a04      	ldr	r2, [pc, #16]	@ (c20 <CLOCK_SetPll0MonitorMode+0x34>)
     c0e:	68fb      	ldr	r3, [r7, #12]
     c10:	f8c2 3500 	str.w	r3, [r2, #1280]	@ 0x500
     c14:	bf00      	nop
     c16:	3714      	adds	r7, #20
     c18:	46bd      	mov	sp, r7
     c1a:	f85d 7b04 	ldr.w	r7, [sp], #4
     c1e:	4770      	bx	lr
     c20:	40044000 	.word	0x40044000

00000c24 <CLOCK_SetFLASHAccessCyclesForFreq>:
     c24:	b480      	push	{r7}
     c26:	b085      	sub	sp, #20
     c28:	af00      	add	r7, sp, #0
     c2a:	6078      	str	r0, [r7, #4]
     c2c:	460b      	mov	r3, r1
     c2e:	70fb      	strb	r3, [r7, #3]
     c30:	2303      	movs	r3, #3
     c32:	60fb      	str	r3, [r7, #12]
     c34:	78fb      	ldrb	r3, [r7, #3]
     c36:	2b02      	cmp	r3, #2
     c38:	d02d      	beq.n	c96 <CLOCK_SetFLASHAccessCyclesForFreq+0x72>
     c3a:	2b02      	cmp	r3, #2
     c3c:	dc48      	bgt.n	cd0 <CLOCK_SetFLASHAccessCyclesForFreq+0xac>
     c3e:	2b00      	cmp	r3, #0
     c40:	d002      	beq.n	c48 <CLOCK_SetFLASHAccessCyclesForFreq+0x24>
     c42:	2b01      	cmp	r3, #1
     c44:	d010      	beq.n	c68 <CLOCK_SetFLASHAccessCyclesForFreq+0x44>
     c46:	e043      	b.n	cd0 <CLOCK_SetFLASHAccessCyclesForFreq+0xac>
     c48:	687b      	ldr	r3, [r7, #4]
     c4a:	4a2a      	ldr	r2, [pc, #168]	@ (cf4 <CLOCK_SetFLASHAccessCyclesForFreq+0xd0>)
     c4c:	4293      	cmp	r3, r2
     c4e:	d901      	bls.n	c54 <CLOCK_SetFLASHAccessCyclesForFreq+0x30>
     c50:	2301      	movs	r3, #1
     c52:	e048      	b.n	ce6 <CLOCK_SetFLASHAccessCyclesForFreq+0xc2>
     c54:	687b      	ldr	r3, [r7, #4]
     c56:	4a28      	ldr	r2, [pc, #160]	@ (cf8 <CLOCK_SetFLASHAccessCyclesForFreq+0xd4>)
     c58:	4293      	cmp	r3, r2
     c5a:	d902      	bls.n	c62 <CLOCK_SetFLASHAccessCyclesForFreq+0x3e>
     c5c:	2301      	movs	r3, #1
     c5e:	60fb      	str	r3, [r7, #12]
     c60:	e036      	b.n	cd0 <CLOCK_SetFLASHAccessCyclesForFreq+0xac>
     c62:	2300      	movs	r3, #0
     c64:	60fb      	str	r3, [r7, #12]
     c66:	e033      	b.n	cd0 <CLOCK_SetFLASHAccessCyclesForFreq+0xac>
     c68:	687b      	ldr	r3, [r7, #4]
     c6a:	4a24      	ldr	r2, [pc, #144]	@ (cfc <CLOCK_SetFLASHAccessCyclesForFreq+0xd8>)
     c6c:	4293      	cmp	r3, r2
     c6e:	d901      	bls.n	c74 <CLOCK_SetFLASHAccessCyclesForFreq+0x50>
     c70:	2301      	movs	r3, #1
     c72:	e038      	b.n	ce6 <CLOCK_SetFLASHAccessCyclesForFreq+0xc2>
     c74:	687b      	ldr	r3, [r7, #4]
     c76:	4a22      	ldr	r2, [pc, #136]	@ (d00 <CLOCK_SetFLASHAccessCyclesForFreq+0xdc>)
     c78:	4293      	cmp	r3, r2
     c7a:	d902      	bls.n	c82 <CLOCK_SetFLASHAccessCyclesForFreq+0x5e>
     c7c:	2302      	movs	r3, #2
     c7e:	60fb      	str	r3, [r7, #12]
     c80:	e026      	b.n	cd0 <CLOCK_SetFLASHAccessCyclesForFreq+0xac>
     c82:	687b      	ldr	r3, [r7, #4]
     c84:	4a1f      	ldr	r2, [pc, #124]	@ (d04 <CLOCK_SetFLASHAccessCyclesForFreq+0xe0>)
     c86:	4293      	cmp	r3, r2
     c88:	d902      	bls.n	c90 <CLOCK_SetFLASHAccessCyclesForFreq+0x6c>
     c8a:	2301      	movs	r3, #1
     c8c:	60fb      	str	r3, [r7, #12]
     c8e:	e01f      	b.n	cd0 <CLOCK_SetFLASHAccessCyclesForFreq+0xac>
     c90:	2300      	movs	r3, #0
     c92:	60fb      	str	r3, [r7, #12]
     c94:	e01c      	b.n	cd0 <CLOCK_SetFLASHAccessCyclesForFreq+0xac>
     c96:	687b      	ldr	r3, [r7, #4]
     c98:	4a1b      	ldr	r2, [pc, #108]	@ (d08 <CLOCK_SetFLASHAccessCyclesForFreq+0xe4>)
     c9a:	4293      	cmp	r3, r2
     c9c:	d901      	bls.n	ca2 <CLOCK_SetFLASHAccessCyclesForFreq+0x7e>
     c9e:	2301      	movs	r3, #1
     ca0:	e021      	b.n	ce6 <CLOCK_SetFLASHAccessCyclesForFreq+0xc2>
     ca2:	687b      	ldr	r3, [r7, #4]
     ca4:	4a15      	ldr	r2, [pc, #84]	@ (cfc <CLOCK_SetFLASHAccessCyclesForFreq+0xd8>)
     ca6:	4293      	cmp	r3, r2
     ca8:	d902      	bls.n	cb0 <CLOCK_SetFLASHAccessCyclesForFreq+0x8c>
     caa:	2303      	movs	r3, #3
     cac:	60fb      	str	r3, [r7, #12]
     cae:	e00f      	b.n	cd0 <CLOCK_SetFLASHAccessCyclesForFreq+0xac>
     cb0:	687b      	ldr	r3, [r7, #4]
     cb2:	4a13      	ldr	r2, [pc, #76]	@ (d00 <CLOCK_SetFLASHAccessCyclesForFreq+0xdc>)
     cb4:	4293      	cmp	r3, r2
     cb6:	d902      	bls.n	cbe <CLOCK_SetFLASHAccessCyclesForFreq+0x9a>
     cb8:	2302      	movs	r3, #2
     cba:	60fb      	str	r3, [r7, #12]
     cbc:	e008      	b.n	cd0 <CLOCK_SetFLASHAccessCyclesForFreq+0xac>
     cbe:	687b      	ldr	r3, [r7, #4]
     cc0:	4a10      	ldr	r2, [pc, #64]	@ (d04 <CLOCK_SetFLASHAccessCyclesForFreq+0xe0>)
     cc2:	4293      	cmp	r3, r2
     cc4:	d902      	bls.n	ccc <CLOCK_SetFLASHAccessCyclesForFreq+0xa8>
     cc6:	2301      	movs	r3, #1
     cc8:	60fb      	str	r3, [r7, #12]
     cca:	e001      	b.n	cd0 <CLOCK_SetFLASHAccessCyclesForFreq+0xac>
     ccc:	2300      	movs	r3, #0
     cce:	60fb      	str	r3, [r7, #12]
     cd0:	4b0e      	ldr	r3, [pc, #56]	@ (d0c <CLOCK_SetFLASHAccessCyclesForFreq+0xe8>)
     cd2:	689b      	ldr	r3, [r3, #8]
     cd4:	f023 020f 	bic.w	r2, r3, #15
     cd8:	68fb      	ldr	r3, [r7, #12]
     cda:	f003 030f 	and.w	r3, r3, #15
     cde:	490b      	ldr	r1, [pc, #44]	@ (d0c <CLOCK_SetFLASHAccessCyclesForFreq+0xe8>)
     ce0:	4313      	orrs	r3, r2
     ce2:	608b      	str	r3, [r1, #8]
     ce4:	2300      	movs	r3, #0
     ce6:	4618      	mov	r0, r3
     ce8:	3714      	adds	r7, #20
     cea:	46bd      	mov	sp, r7
     cec:	f85d 7b04 	ldr.w	r7, [sp], #4
     cf0:	4770      	bx	lr
     cf2:	bf00      	nop
     cf4:	02faf080 	.word	0x02faf080
     cf8:	016e3600 	.word	0x016e3600
     cfc:	05f5e100 	.word	0x05f5e100
     d00:	03d09000 	.word	0x03d09000
     d04:	02255100 	.word	0x02255100
     d08:	08f0d180 	.word	0x08f0d180
     d0c:	40043000 	.word	0x40043000

00000d10 <CLOCK_AttachClk>:
     d10:	b480      	push	{r7}
     d12:	b089      	sub	sp, #36	@ 0x24
     d14:	af00      	add	r7, sp, #0
     d16:	6078      	str	r0, [r7, #4]
     d18:	687b      	ldr	r3, [r7, #4]
     d1a:	61fb      	str	r3, [r7, #28]
     d1c:	4b26      	ldr	r3, [pc, #152]	@ (db8 <CLOCK_AttachClk+0xa8>)
     d1e:	617b      	str	r3, [r7, #20]
     d20:	687b      	ldr	r3, [r7, #4]
     d22:	f1b3 4f00 	cmp.w	r3, #2147483648	@ 0x80000000
     d26:	d040      	beq.n	daa <CLOCK_AttachClk+0x9a>
     d28:	2300      	movs	r3, #0
     d2a:	61bb      	str	r3, [r7, #24]
     d2c:	e038      	b.n	da0 <CLOCK_AttachClk+0x90>
     d2e:	69fb      	ldr	r3, [r7, #28]
     d30:	2b00      	cmp	r3, #0
     d32:	d039      	beq.n	da8 <CLOCK_AttachClk+0x98>
     d34:	69fb      	ldr	r3, [r7, #28]
     d36:	827b      	strh	r3, [r7, #18]
     d38:	8a7b      	ldrh	r3, [r7, #18]
     d3a:	2b00      	cmp	r3, #0
     d3c:	d02a      	beq.n	d94 <CLOCK_AttachClk+0x84>
     d3e:	8a7b      	ldrh	r3, [r7, #18]
     d40:	f3c3 030b 	ubfx	r3, r3, #0, #12
     d44:	823b      	strh	r3, [r7, #16]
     d46:	8a7b      	ldrh	r3, [r7, #18]
     d48:	0b1b      	lsrs	r3, r3, #12
     d4a:	b29b      	uxth	r3, r3
     d4c:	b2db      	uxtb	r3, r3
     d4e:	3b01      	subs	r3, #1
     d50:	73fb      	strb	r3, [r7, #15]
     d52:	8a3b      	ldrh	r3, [r7, #16]
     d54:	f240 32fe 	movw	r2, #1022	@ 0x3fe
     d58:	4293      	cmp	r3, r2
     d5a:	d115      	bne.n	d88 <CLOCK_AttachClk+0x78>
     d5c:	4b17      	ldr	r3, [pc, #92]	@ (dbc <CLOCK_AttachClk+0xac>)
     d5e:	695b      	ldr	r3, [r3, #20]
     d60:	f023 6270 	bic.w	r2, r3, #251658240	@ 0xf000000
     d64:	7bfb      	ldrb	r3, [r7, #15]
     d66:	061b      	lsls	r3, r3, #24
     d68:	f003 6370 	and.w	r3, r3, #251658240	@ 0xf000000
     d6c:	4913      	ldr	r1, [pc, #76]	@ (dbc <CLOCK_AttachClk+0xac>)
     d6e:	4313      	orrs	r3, r2
     d70:	614b      	str	r3, [r1, #20]
     d72:	bf00      	nop
     d74:	4b11      	ldr	r3, [pc, #68]	@ (dbc <CLOCK_AttachClk+0xac>)
     d76:	691a      	ldr	r2, [r3, #16]
     d78:	7bfb      	ldrb	r3, [r7, #15]
     d7a:	061b      	lsls	r3, r3, #24
     d7c:	4053      	eors	r3, r2
     d7e:	f003 6370 	and.w	r3, r3, #251658240	@ 0xf000000
     d82:	2b00      	cmp	r3, #0
     d84:	d1f6      	bne.n	d74 <CLOCK_AttachClk+0x64>
     d86:	e005      	b.n	d94 <CLOCK_AttachClk+0x84>
     d88:	8a3b      	ldrh	r3, [r7, #16]
     d8a:	009b      	lsls	r3, r3, #2
     d8c:	697a      	ldr	r2, [r7, #20]
     d8e:	4413      	add	r3, r2
     d90:	7bfa      	ldrb	r2, [r7, #15]
     d92:	601a      	str	r2, [r3, #0]
     d94:	69fb      	ldr	r3, [r7, #28]
     d96:	0c1b      	lsrs	r3, r3, #16
     d98:	61fb      	str	r3, [r7, #28]
     d9a:	69bb      	ldr	r3, [r7, #24]
     d9c:	3301      	adds	r3, #1
     d9e:	61bb      	str	r3, [r7, #24]
     da0:	69bb      	ldr	r3, [r7, #24]
     da2:	2b01      	cmp	r3, #1
     da4:	d9c3      	bls.n	d2e <CLOCK_AttachClk+0x1e>
     da6:	e000      	b.n	daa <CLOCK_AttachClk+0x9a>
     da8:	bf00      	nop
     daa:	bf00      	nop
     dac:	3724      	adds	r7, #36	@ 0x24
     dae:	46bd      	mov	sp, r7
     db0:	f85d 7b04 	ldr.w	r7, [sp], #4
     db4:	4770      	bx	lr
     db6:	bf00      	nop
     db8:	40000260 	.word	0x40000260
     dbc:	40044000 	.word	0x40044000

00000dc0 <CLOCK_SetClkDiv>:
     dc0:	b480      	push	{r7}
     dc2:	b085      	sub	sp, #20
     dc4:	af00      	add	r7, sp, #0
     dc6:	4603      	mov	r3, r0
     dc8:	6039      	str	r1, [r7, #0]
     dca:	80fb      	strh	r3, [r7, #6]
     dcc:	4b10      	ldr	r3, [pc, #64]	@ (e10 <CLOCK_SetClkDiv+0x50>)
     dce:	60fb      	str	r3, [r7, #12]
     dd0:	88fb      	ldrh	r3, [r7, #6]
     dd2:	009b      	lsls	r3, r3, #2
     dd4:	68fa      	ldr	r2, [r7, #12]
     dd6:	4413      	add	r3, r2
     dd8:	f04f 42c0 	mov.w	r2, #1610612736	@ 0x60000000
     ddc:	601a      	str	r2, [r3, #0]
     dde:	683b      	ldr	r3, [r7, #0]
     de0:	2b00      	cmp	r3, #0
     de2:	d107      	bne.n	df4 <CLOCK_SetClkDiv+0x34>
     de4:	88fb      	ldrh	r3, [r7, #6]
     de6:	009b      	lsls	r3, r3, #2
     de8:	68fa      	ldr	r2, [r7, #12]
     dea:	4413      	add	r3, r2
     dec:	f04f 4280 	mov.w	r2, #1073741824	@ 0x40000000
     df0:	601a      	str	r2, [r3, #0]
     df2:	e006      	b.n	e02 <CLOCK_SetClkDiv+0x42>
     df4:	88fb      	ldrh	r3, [r7, #6]
     df6:	009b      	lsls	r3, r3, #2
     df8:	68fa      	ldr	r2, [r7, #12]
     dfa:	4413      	add	r3, r2
     dfc:	683a      	ldr	r2, [r7, #0]
     dfe:	3a01      	subs	r2, #1
     e00:	601a      	str	r2, [r3, #0]
     e02:	bf00      	nop
     e04:	3714      	adds	r7, #20
     e06:	46bd      	mov	sp, r7
     e08:	f85d 7b04 	ldr.w	r7, [sp], #4
     e0c:	4770      	bx	lr
     e0e:	bf00      	nop
     e10:	40000300 	.word	0x40000300

00000e14 <CLOCK_GetPLL0InClockRate>:
     e14:	b580      	push	{r7, lr}
     e16:	b082      	sub	sp, #8
     e18:	af00      	add	r7, sp, #0
     e1a:	2300      	movs	r3, #0
     e1c:	607b      	str	r3, [r7, #4]
     e1e:	4b12      	ldr	r3, [pc, #72]	@ (e68 <CLOCK_GetPLL0InClockRate+0x54>)
     e20:	f8d3 3504 	ldr.w	r3, [r3, #1284]	@ 0x504
     e24:	0e5b      	lsrs	r3, r3, #25
     e26:	f003 0303 	and.w	r3, r3, #3
     e2a:	2b02      	cmp	r3, #2
     e2c:	d00e      	beq.n	e4c <CLOCK_GetPLL0InClockRate+0x38>
     e2e:	2b02      	cmp	r3, #2
     e30:	d811      	bhi.n	e56 <CLOCK_GetPLL0InClockRate+0x42>
     e32:	2b00      	cmp	r3, #0
     e34:	d002      	beq.n	e3c <CLOCK_GetPLL0InClockRate+0x28>
     e36:	2b01      	cmp	r3, #1
     e38:	d004      	beq.n	e44 <CLOCK_GetPLL0InClockRate+0x30>
     e3a:	e00c      	b.n	e56 <CLOCK_GetPLL0InClockRate+0x42>
     e3c:	f000 f8b2 	bl	fa4 <CLOCK_GetExtClkFreq>
     e40:	6078      	str	r0, [r7, #4]
     e42:	e00b      	b.n	e5c <CLOCK_GetPLL0InClockRate+0x48>
     e44:	f000 f898 	bl	f78 <CLOCK_GetClk48MFreq>
     e48:	6078      	str	r0, [r7, #4]
     e4a:	e007      	b.n	e5c <CLOCK_GetPLL0InClockRate+0x48>
     e4c:	2001      	movs	r0, #1
     e4e:	f000 f8bf 	bl	fd0 <CLOCK_GetOsc32KFreq>
     e52:	6078      	str	r0, [r7, #4]
     e54:	e002      	b.n	e5c <CLOCK_GetPLL0InClockRate+0x48>
     e56:	2300      	movs	r3, #0
     e58:	607b      	str	r3, [r7, #4]
     e5a:	bf00      	nop
     e5c:	687b      	ldr	r3, [r7, #4]
     e5e:	4618      	mov	r0, r3
     e60:	3708      	adds	r7, #8
     e62:	46bd      	mov	sp, r7
     e64:	bd80      	pop	{r7, pc}
     e66:	bf00      	nop
     e68:	40044000 	.word	0x40044000

00000e6c <CLOCK_SetPLL0Freq>:
     e6c:	b590      	push	{r4, r7, lr}
     e6e:	b087      	sub	sp, #28
     e70:	af00      	add	r7, sp, #0
     e72:	6078      	str	r0, [r7, #4]
     e74:	4b3d      	ldr	r3, [pc, #244]	@ (f6c <CLOCK_SetPLL0Freq+0x100>)
     e76:	f8d3 3800 	ldr.w	r3, [r3, #2048]	@ 0x800
     e7a:	4a3c      	ldr	r2, [pc, #240]	@ (f6c <CLOCK_SetPLL0Freq+0x100>)
     e7c:	f043 0301 	orr.w	r3, r3, #1
     e80:	f8c2 3800 	str.w	r3, [r2, #2048]	@ 0x800
     e84:	4b39      	ldr	r3, [pc, #228]	@ (f6c <CLOCK_SetPLL0Freq+0x100>)
     e86:	f8d3 3500 	ldr.w	r3, [r3, #1280]	@ 0x500
     e8a:	4a38      	ldr	r2, [pc, #224]	@ (f6c <CLOCK_SetPLL0Freq+0x100>)
     e8c:	f023 0303 	bic.w	r3, r3, #3
     e90:	f8c2 3500 	str.w	r3, [r2, #1280]	@ 0x500
     e94:	4a35      	ldr	r2, [pc, #212]	@ (f6c <CLOCK_SetPLL0Freq+0x100>)
     e96:	687b      	ldr	r3, [r7, #4]
     e98:	681b      	ldr	r3, [r3, #0]
     e9a:	f8c2 3504 	str.w	r3, [r2, #1284]	@ 0x504
     e9e:	4a33      	ldr	r2, [pc, #204]	@ (f6c <CLOCK_SetPLL0Freq+0x100>)
     ea0:	687b      	ldr	r3, [r7, #4]
     ea2:	685b      	ldr	r3, [r3, #4]
     ea4:	f8c2 350c 	str.w	r3, [r2, #1292]	@ 0x50c
     ea8:	687b      	ldr	r3, [r7, #4]
     eaa:	685b      	ldr	r3, [r3, #4]
     eac:	4a2f      	ldr	r2, [pc, #188]	@ (f6c <CLOCK_SetPLL0Freq+0x100>)
     eae:	f043 4300 	orr.w	r3, r3, #2147483648	@ 0x80000000
     eb2:	f8c2 350c 	str.w	r3, [r2, #1292]	@ 0x50c
     eb6:	4a2d      	ldr	r2, [pc, #180]	@ (f6c <CLOCK_SetPLL0Freq+0x100>)
     eb8:	687b      	ldr	r3, [r7, #4]
     eba:	689b      	ldr	r3, [r3, #8]
     ebc:	f8c2 3514 	str.w	r3, [r2, #1300]	@ 0x514
     ec0:	687b      	ldr	r3, [r7, #4]
     ec2:	689b      	ldr	r3, [r3, #8]
     ec4:	4a29      	ldr	r2, [pc, #164]	@ (f6c <CLOCK_SetPLL0Freq+0x100>)
     ec6:	f043 4300 	orr.w	r3, r3, #2147483648	@ 0x80000000
     eca:	f8c2 3514 	str.w	r3, [r2, #1300]	@ 0x514
     ece:	4a27      	ldr	r2, [pc, #156]	@ (f6c <CLOCK_SetPLL0Freq+0x100>)
     ed0:	687b      	ldr	r3, [r7, #4]
     ed2:	68db      	ldr	r3, [r3, #12]
     ed4:	f8c2 3510 	str.w	r3, [r2, #1296]	@ 0x510
     ed8:	687b      	ldr	r3, [r7, #4]
     eda:	68db      	ldr	r3, [r3, #12]
     edc:	4a23      	ldr	r2, [pc, #140]	@ (f6c <CLOCK_SetPLL0Freq+0x100>)
     ede:	f043 4300 	orr.w	r3, r3, #2147483648	@ 0x80000000
     ee2:	f8c2 3510 	str.w	r3, [r2, #1296]	@ 0x510
     ee6:	4a21      	ldr	r2, [pc, #132]	@ (f6c <CLOCK_SetPLL0Freq+0x100>)
     ee8:	687b      	ldr	r3, [r7, #4]
     eea:	691b      	ldr	r3, [r3, #16]
     eec:	f8c2 3524 	str.w	r3, [r2, #1316]	@ 0x524
     ef0:	4a1e      	ldr	r2, [pc, #120]	@ (f6c <CLOCK_SetPLL0Freq+0x100>)
     ef2:	687b      	ldr	r3, [r7, #4]
     ef4:	695b      	ldr	r3, [r3, #20]
     ef6:	f8c2 3528 	str.w	r3, [r2, #1320]	@ 0x528
     efa:	4b1c      	ldr	r3, [pc, #112]	@ (f6c <CLOCK_SetPLL0Freq+0x100>)
     efc:	4a1c      	ldr	r2, [pc, #112]	@ (f70 <CLOCK_SetPLL0Freq+0x104>)
     efe:	609a      	str	r2, [r3, #8]
     f00:	f7ff ff88 	bl	e14 <CLOCK_GetPLL0InClockRate>
     f04:	6178      	str	r0, [r7, #20]
     f06:	f000 f889 	bl	101c <findPll0PreDiv>
     f0a:	6138      	str	r0, [r7, #16]
     f0c:	697a      	ldr	r2, [r7, #20]
     f0e:	693b      	ldr	r3, [r7, #16]
     f10:	fbb2 f3f3 	udiv	r3, r2, r3
     f14:	60fb      	str	r3, [r7, #12]
     f16:	68fb      	ldr	r3, [r7, #12]
     f18:	4a16      	ldr	r2, [pc, #88]	@ (f74 <CLOCK_SetPLL0Freq+0x108>)
     f1a:	fba2 2303 	umull	r2, r3, r2, r3
     f1e:	09db      	lsrs	r3, r3, #7
     f20:	f503 7396 	add.w	r3, r3, #300	@ 0x12c
     f24:	4a11      	ldr	r2, [pc, #68]	@ (f6c <CLOCK_SetPLL0Freq+0x100>)
     f26:	f3c3 0310 	ubfx	r3, r3, #0, #17
     f2a:	f8c2 3518 	str.w	r3, [r2, #1304]	@ 0x518
     f2e:	4b0f      	ldr	r3, [pc, #60]	@ (f6c <CLOCK_SetPLL0Freq+0x100>)
     f30:	f8d3 3500 	ldr.w	r3, [r3, #1280]	@ 0x500
     f34:	4a0d      	ldr	r2, [pc, #52]	@ (f6c <CLOCK_SetPLL0Freq+0x100>)
     f36:	f043 0303 	orr.w	r3, r3, #3
     f3a:	f8c2 3500 	str.w	r3, [r2, #1280]	@ 0x500
     f3e:	bf00      	nop
     f40:	f7ff fdf2 	bl	b28 <CLOCK_IsPLL0Locked>
     f44:	4603      	mov	r3, r0
     f46:	f083 0301 	eor.w	r3, r3, #1
     f4a:	b2db      	uxtb	r3, r3
     f4c:	2b00      	cmp	r3, #0
     f4e:	d1f7      	bne.n	f40 <CLOCK_SetPLL0Freq+0xd4>
     f50:	687b      	ldr	r3, [r7, #4]
     f52:	699c      	ldr	r4, [r3, #24]
     f54:	f002 fe82 	bl	3c5c <CLOCK_GetPll0OutFreq>
     f58:	4603      	mov	r3, r0
     f5a:	429c      	cmp	r4, r3
     f5c:	d001      	beq.n	f62 <CLOCK_SetPLL0Freq+0xf6>
     f5e:	2303      	movs	r3, #3
     f60:	e000      	b.n	f64 <CLOCK_SetPLL0Freq+0xf8>
     f62:	2300      	movs	r3, #0
     f64:	4618      	mov	r0, r3
     f66:	371c      	adds	r7, #28
     f68:	46bd      	mov	sp, r7
     f6a:	bd90      	pop	{r4, r7, pc}
     f6c:	40044000 	.word	0x40044000
     f70:	5a5a0001 	.word	0x5a5a0001
     f74:	10624dd3 	.word	0x10624dd3

00000f78 <CLOCK_GetClk48MFreq>:
     f78:	b480      	push	{r7}
     f7a:	af00      	add	r7, sp, #0
     f7c:	4b07      	ldr	r3, [pc, #28]	@ (f9c <CLOCK_GetClk48MFreq+0x24>)
     f7e:	f8d3 3300 	ldr.w	r3, [r3, #768]	@ 0x300
     f82:	f003 0310 	and.w	r3, r3, #16
     f86:	2b00      	cmp	r3, #0
     f88:	d001      	beq.n	f8e <CLOCK_GetClk48MFreq+0x16>
     f8a:	4b05      	ldr	r3, [pc, #20]	@ (fa0 <CLOCK_GetClk48MFreq+0x28>)
     f8c:	e000      	b.n	f90 <CLOCK_GetClk48MFreq+0x18>
     f8e:	2300      	movs	r3, #0
     f90:	4618      	mov	r0, r3
     f92:	46bd      	mov	sp, r7
     f94:	f85d 7b04 	ldr.w	r7, [sp], #4
     f98:	4770      	bx	lr
     f9a:	bf00      	nop
     f9c:	40044000 	.word	0x40044000
     fa0:	02dc6c00 	.word	0x02dc6c00

00000fa4 <CLOCK_GetExtClkFreq>:
     fa4:	b480      	push	{r7}
     fa6:	af00      	add	r7, sp, #0
     fa8:	4b07      	ldr	r3, [pc, #28]	@ (fc8 <CLOCK_GetExtClkFreq+0x24>)
     faa:	f8d3 3100 	ldr.w	r3, [r3, #256]	@ 0x100
     fae:	f003 7380 	and.w	r3, r3, #16777216	@ 0x1000000
     fb2:	2b00      	cmp	r3, #0
     fb4:	d002      	beq.n	fbc <CLOCK_GetExtClkFreq+0x18>
     fb6:	4b05      	ldr	r3, [pc, #20]	@ (fcc <CLOCK_GetExtClkFreq+0x28>)
     fb8:	681b      	ldr	r3, [r3, #0]
     fba:	e000      	b.n	fbe <CLOCK_GetExtClkFreq+0x1a>
     fbc:	2300      	movs	r3, #0
     fbe:	4618      	mov	r0, r3
     fc0:	46bd      	mov	sp, r7
     fc2:	f85d 7b04 	ldr.w	r7, [sp], #4
     fc6:	4770      	bx	lr
     fc8:	40044000 	.word	0x40044000
     fcc:	20000000 	.word	0x20000000

00000fd0 <CLOCK_GetOsc32KFreq>:
     fd0:	b480      	push	{r7}
     fd2:	b083      	sub	sp, #12
     fd4:	af00      	add	r7, sp, #0
     fd6:	6078      	str	r0, [r7, #4]
     fd8:	4b0d      	ldr	r3, [pc, #52]	@ (1010 <_HeapSize+0x10>)
     fda:	f8d3 3400 	ldr.w	r3, [r3, #1024]	@ 0x400
     fde:	f003 7380 	and.w	r3, r3, #16777216	@ 0x1000000
     fe2:	2b00      	cmp	r3, #0
     fe4:	d00d      	beq.n	1002 <_HeapSize+0x2>
     fe6:	4b0b      	ldr	r3, [pc, #44]	@ (1014 <_HeapSize+0x14>)
     fe8:	f8d3 2120 	ldr.w	r2, [r3, #288]	@ 0x120
     fec:	687b      	ldr	r3, [r7, #4]
     fee:	4013      	ands	r3, r2
     ff0:	f003 030f 	and.w	r3, r3, #15
     ff4:	2b00      	cmp	r3, #0
     ff6:	d002      	beq.n	ffe <CLOCK_GetOsc32KFreq+0x2e>
     ff8:	4b07      	ldr	r3, [pc, #28]	@ (1018 <_HeapSize+0x18>)
     ffa:	681b      	ldr	r3, [r3, #0]
     ffc:	e002      	b.n	1004 <_HeapSize+0x4>
     ffe:	2300      	movs	r3, #0
    1000:	e000      	b.n	1004 <_HeapSize+0x4>
    1002:	2300      	movs	r3, #0
    1004:	4618      	mov	r0, r3
    1006:	370c      	adds	r7, #12
    1008:	46bd      	mov	sp, r7
    100a:	f85d 7b04 	ldr.w	r7, [sp], #4
    100e:	4770      	bx	lr
    1010:	40044000 	.word	0x40044000
    1014:	40059000 	.word	0x40059000
    1018:	20000004 	.word	0x20000004

0000101c <findPll0PreDiv>:
    101c:	b480      	push	{r7}
    101e:	b083      	sub	sp, #12
    1020:	af00      	add	r7, sp, #0
    1022:	2301      	movs	r3, #1
    1024:	607b      	str	r3, [r7, #4]
    1026:	4b0c      	ldr	r3, [pc, #48]	@ (1058 <findPll0PreDiv+0x3c>)
    1028:	f8d3 3504 	ldr.w	r3, [r3, #1284]	@ 0x504
    102c:	f403 2300 	and.w	r3, r3, #524288	@ 0x80000
    1030:	2b00      	cmp	r3, #0
    1032:	d109      	bne.n	1048 <findPll0PreDiv+0x2c>
    1034:	4b08      	ldr	r3, [pc, #32]	@ (1058 <findPll0PreDiv+0x3c>)
    1036:	f8d3 350c 	ldr.w	r3, [r3, #1292]	@ 0x50c
    103a:	b2db      	uxtb	r3, r3
    103c:	607b      	str	r3, [r7, #4]
    103e:	687b      	ldr	r3, [r7, #4]
    1040:	2b00      	cmp	r3, #0
    1042:	d101      	bne.n	1048 <findPll0PreDiv+0x2c>
    1044:	2301      	movs	r3, #1
    1046:	607b      	str	r3, [r7, #4]
    1048:	687b      	ldr	r3, [r7, #4]
    104a:	4618      	mov	r0, r3
    104c:	370c      	adds	r7, #12
    104e:	46bd      	mov	sp, r7
    1050:	f85d 7b04 	ldr.w	r7, [sp], #4
    1054:	4770      	bx	lr
    1056:	bf00      	nop
    1058:	40044000 	.word	0x40044000

0000105c <findPll0PostDiv>:
    105c:	b480      	push	{r7}
    105e:	b083      	sub	sp, #12
    1060:	af00      	add	r7, sp, #0
    1062:	2301      	movs	r3, #1
    1064:	607b      	str	r3, [r7, #4]
    1066:	4b14      	ldr	r3, [pc, #80]	@ (10b8 <findPll0PostDiv+0x5c>)
    1068:	f8d3 3504 	ldr.w	r3, [r3, #1284]	@ 0x504
    106c:	f403 1380 	and.w	r3, r3, #1048576	@ 0x100000
    1070:	2b00      	cmp	r3, #0
    1072:	d119      	bne.n	10a8 <findPll0PostDiv+0x4c>
    1074:	4b10      	ldr	r3, [pc, #64]	@ (10b8 <findPll0PostDiv+0x5c>)
    1076:	f8d3 3504 	ldr.w	r3, [r3, #1284]	@ 0x504
    107a:	f403 3380 	and.w	r3, r3, #65536	@ 0x10000
    107e:	2b00      	cmp	r3, #0
    1080:	d006      	beq.n	1090 <findPll0PostDiv+0x34>
    1082:	4b0d      	ldr	r3, [pc, #52]	@ (10b8 <findPll0PostDiv+0x5c>)
    1084:	f8d3 3514 	ldr.w	r3, [r3, #1300]	@ 0x514
    1088:	f003 031f 	and.w	r3, r3, #31
    108c:	607b      	str	r3, [r7, #4]
    108e:	e006      	b.n	109e <findPll0PostDiv+0x42>
    1090:	4b09      	ldr	r3, [pc, #36]	@ (10b8 <findPll0PostDiv+0x5c>)
    1092:	f8d3 3514 	ldr.w	r3, [r3, #1300]	@ 0x514
    1096:	f003 031f 	and.w	r3, r3, #31
    109a:	005b      	lsls	r3, r3, #1
    109c:	607b      	str	r3, [r7, #4]
    109e:	687b      	ldr	r3, [r7, #4]
    10a0:	2b00      	cmp	r3, #0
    10a2:	d101      	bne.n	10a8 <findPll0PostDiv+0x4c>
    10a4:	2302      	movs	r3, #2
    10a6:	607b      	str	r3, [r7, #4]
    10a8:	687b      	ldr	r3, [r7, #4]
    10aa:	4618      	mov	r0, r3
    10ac:	370c      	adds	r7, #12
    10ae:	46bd      	mov	sp, r7
    10b0:	f85d 7b04 	ldr.w	r7, [sp], #4
    10b4:	4770      	bx	lr
    10b6:	bf00      	nop
    10b8:	40044000 	.word	0x40044000

000010bc <findPll0MMult>:
    10bc:	b580      	push	{r7, lr}
    10be:	b084      	sub	sp, #16
    10c0:	af00      	add	r7, sp, #0
    10c2:	f04f 537e 	mov.w	r3, #1065353216	@ 0x3f800000
    10c6:	60fb      	str	r3, [r7, #12]
    10c8:	4b25      	ldr	r3, [pc, #148]	@ (1160 <findPll0MMult+0xa4>)
    10ca:	f8d3 3528 	ldr.w	r3, [r3, #1320]	@ 0x528
    10ce:	f403 6300 	and.w	r3, r3, #2048	@ 0x800
    10d2:	2b00      	cmp	r3, #0
    10d4:	d10a      	bne.n	10ec <findPll0MMult+0x30>
    10d6:	4b22      	ldr	r3, [pc, #136]	@ (1160 <findPll0MMult+0xa4>)
    10d8:	f8d3 3510 	ldr.w	r3, [r3, #1296]	@ 0x510
    10dc:	b29b      	uxth	r3, r3
    10de:	ee07 3a90 	vmov	s15, r3
    10e2:	eef8 7a67 	vcvt.f32.u32	s15, s15
    10e6:	edc7 7a03 	vstr	s15, [r7, #12]
    10ea:	e027      	b.n	113c <findPll0MMult+0x80>
    10ec:	4b1c      	ldr	r3, [pc, #112]	@ (1160 <findPll0MMult+0xa4>)
    10ee:	f8d3 3528 	ldr.w	r3, [r3, #1320]	@ 0x528
    10f2:	01db      	lsls	r3, r3, #7
    10f4:	f003 0380 	and.w	r3, r3, #128	@ 0x80
    10f8:	60bb      	str	r3, [r7, #8]
    10fa:	4b19      	ldr	r3, [pc, #100]	@ (1160 <findPll0MMult+0xa4>)
    10fc:	f8d3 3524 	ldr.w	r3, [r3, #1316]	@ 0x524
    1100:	0e5b      	lsrs	r3, r3, #25
    1102:	68ba      	ldr	r2, [r7, #8]
    1104:	4313      	orrs	r3, r2
    1106:	60bb      	str	r3, [r7, #8]
    1108:	4b15      	ldr	r3, [pc, #84]	@ (1160 <findPll0MMult+0xa4>)
    110a:	f8d3 3524 	ldr.w	r3, [r3, #1316]	@ 0x524
    110e:	f023 437e 	bic.w	r3, r3, #4261412864	@ 0xfe000000
    1112:	ee07 3a90 	vmov	s15, r3
    1116:	eeb8 7a67 	vcvt.f32.u32	s14, s15
    111a:	eddf 6a12 	vldr	s13, [pc, #72]	@ 1164 <findPll0MMult+0xa8>
    111e:	eec7 7a26 	vdiv.f32	s15, s14, s13
    1122:	edc7 7a01 	vstr	s15, [r7, #4]
    1126:	68bb      	ldr	r3, [r7, #8]
    1128:	ee07 3a90 	vmov	s15, r3
    112c:	eef8 7a67 	vcvt.f32.u32	s15, s15
    1130:	ed97 7a01 	vldr	s14, [r7, #4]
    1134:	ee77 7a27 	vadd.f32	s15, s14, s15
    1138:	edc7 7a03 	vstr	s15, [r7, #12]
    113c:	68f8      	ldr	r0, [r7, #12]
    113e:	f003 fa9f 	bl	4680 <__aeabi_f2ulz>
    1142:	4602      	mov	r2, r0
    1144:	460b      	mov	r3, r1
    1146:	4313      	orrs	r3, r2
    1148:	d102      	bne.n	1150 <findPll0MMult+0x94>
    114a:	f04f 537e 	mov.w	r3, #1065353216	@ 0x3f800000
    114e:	60fb      	str	r3, [r7, #12]
    1150:	68fb      	ldr	r3, [r7, #12]
    1152:	ee07 3a90 	vmov	s15, r3
    1156:	eeb0 0a67 	vmov.f32	s0, s15
    115a:	3710      	adds	r7, #16
    115c:	46bd      	mov	sp, r7
    115e:	bd80      	pop	{r7, pc}
    1160:	40044000 	.word	0x40044000
    1164:	4c000000 	.word	0x4c000000

00001168 <LP_FLEXCOMM_GetInterruptStatus>:
    1168:	b480      	push	{r7}
    116a:	b085      	sub	sp, #20
    116c:	af00      	add	r7, sp, #0
    116e:	6078      	str	r0, [r7, #4]
    1170:	4a06      	ldr	r2, [pc, #24]	@ (118c <LP_FLEXCOMM_GetInterruptStatus+0x24>)
    1172:	687b      	ldr	r3, [r7, #4]
    1174:	f852 3023 	ldr.w	r3, [r2, r3, lsl #2]
    1178:	60fb      	str	r3, [r7, #12]
    117a:	68fb      	ldr	r3, [r7, #12]
    117c:	f8d3 3ff4 	ldr.w	r3, [r3, #4084]	@ 0xff4
    1180:	4618      	mov	r0, r3
    1182:	3714      	adds	r7, #20
    1184:	46bd      	mov	sp, r7
    1186:	f85d 7b04 	ldr.w	r7, [sp], #4
    118a:	4770      	bx	lr
    118c:	00004a80 	.word	0x00004a80

00001190 <LP_FLEXCOMM_SetPeriph>:
    1190:	b580      	push	{r7, lr}
    1192:	b086      	sub	sp, #24
    1194:	af00      	add	r7, sp, #0
    1196:	60f8      	str	r0, [r7, #12]
    1198:	460b      	mov	r3, r1
    119a:	607a      	str	r2, [r7, #4]
    119c:	72fb      	strb	r3, [r7, #11]
    119e:	7afb      	ldrb	r3, [r7, #11]
    11a0:	2b07      	cmp	r3, #7
    11a2:	d902      	bls.n	11aa <LP_FLEXCOMM_SetPeriph+0x1a>
    11a4:	481d      	ldr	r0, [pc, #116]	@ (121c <LP_FLEXCOMM_SetPeriph+0x8c>)
    11a6:	f7ff f903 	bl	3b0 <__assertion_failed>
    11aa:	4a1d      	ldr	r2, [pc, #116]	@ (1220 <LP_FLEXCOMM_SetPeriph+0x90>)
    11ac:	68fb      	ldr	r3, [r7, #12]
    11ae:	f852 3023 	ldr.w	r3, [r2, r3, lsl #2]
    11b2:	617b      	str	r3, [r7, #20]
    11b4:	7afb      	ldrb	r3, [r7, #11]
    11b6:	4619      	mov	r1, r3
    11b8:	6978      	ldr	r0, [r7, #20]
    11ba:	f002 fdda 	bl	3d72 <LP_FLEXCOMM_PeripheralIsPresent>
    11be:	4603      	mov	r3, r0
    11c0:	f083 0301 	eor.w	r3, r3, #1
    11c4:	b2db      	uxtb	r3, r3
    11c6:	2b00      	cmp	r3, #0
    11c8:	d001      	beq.n	11ce <LP_FLEXCOMM_SetPeriph+0x3e>
    11ca:	2303      	movs	r3, #3
    11cc:	e021      	b.n	1212 <LP_FLEXCOMM_SetPeriph+0x82>
    11ce:	697b      	ldr	r3, [r7, #20]
    11d0:	f8d3 3ff8 	ldr.w	r3, [r3, #4088]	@ 0xff8
    11d4:	f003 0308 	and.w	r3, r3, #8
    11d8:	2b00      	cmp	r3, #0
    11da:	d009      	beq.n	11f0 <LP_FLEXCOMM_SetPeriph+0x60>
    11dc:	697b      	ldr	r3, [r7, #20]
    11de:	f8d3 3ff8 	ldr.w	r3, [r3, #4088]	@ 0xff8
    11e2:	f003 0207 	and.w	r2, r3, #7
    11e6:	7afb      	ldrb	r3, [r7, #11]
    11e8:	429a      	cmp	r2, r3
    11ea:	d001      	beq.n	11f0 <LP_FLEXCOMM_SetPeriph+0x60>
    11ec:	2301      	movs	r3, #1
    11ee:	e010      	b.n	1212 <LP_FLEXCOMM_SetPeriph+0x82>
    11f0:	687b      	ldr	r3, [r7, #4]
    11f2:	2b00      	cmp	r3, #0
    11f4:	d008      	beq.n	1208 <LP_FLEXCOMM_SetPeriph+0x78>
    11f6:	7afb      	ldrb	r3, [r7, #11]
    11f8:	f043 0308 	orr.w	r3, r3, #8
    11fc:	b2db      	uxtb	r3, r3
    11fe:	461a      	mov	r2, r3
    1200:	697b      	ldr	r3, [r7, #20]
    1202:	f8c3 2ff8 	str.w	r2, [r3, #4088]	@ 0xff8
    1206:	e003      	b.n	1210 <LP_FLEXCOMM_SetPeriph+0x80>
    1208:	7afa      	ldrb	r2, [r7, #11]
    120a:	697b      	ldr	r3, [r7, #20]
    120c:	f8c3 2ff8 	str.w	r2, [r3, #4088]	@ 0xff8
    1210:	2300      	movs	r3, #0
    1212:	4618      	mov	r0, r3
    1214:	3718      	adds	r7, #24
    1216:	46bd      	mov	sp, r7
    1218:	bd80      	pop	{r7, pc}
    121a:	bf00      	nop
    121c:	00004ae4 	.word	0x00004ae4
    1220:	00004a80 	.word	0x00004a80

00001224 <LP_FLEXCOMM_Init>:
    1224:	b580      	push	{r7, lr}
    1226:	b082      	sub	sp, #8
    1228:	af00      	add	r7, sp, #0
    122a:	6078      	str	r0, [r7, #4]
    122c:	460b      	mov	r3, r1
    122e:	70fb      	strb	r3, [r7, #3]
    1230:	687b      	ldr	r3, [r7, #4]
    1232:	2b09      	cmp	r3, #9
    1234:	d902      	bls.n	123c <LP_FLEXCOMM_Init+0x18>
    1236:	480e      	ldr	r0, [pc, #56]	@ (1270 <LP_FLEXCOMM_Init+0x4c>)
    1238:	f7ff f8ba 	bl	3b0 <__assertion_failed>
    123c:	4a0d      	ldr	r2, [pc, #52]	@ (1274 <LP_FLEXCOMM_Init+0x50>)
    123e:	687b      	ldr	r3, [r7, #4]
    1240:	f832 3013 	ldrh.w	r3, [r2, r3, lsl #1]
    1244:	4618      	mov	r0, r3
    1246:	f002 fd4a 	bl	3cde <CLOCK_EnableClock>
    124a:	4a0b      	ldr	r2, [pc, #44]	@ (1278 <LP_FLEXCOMM_Init+0x54>)
    124c:	687b      	ldr	r3, [r7, #4]
    124e:	f852 3023 	ldr.w	r3, [r2, r3, lsl #2]
    1252:	4618      	mov	r0, r3
    1254:	f000 fb22 	bl	189c <RESET_ClearPeripheralReset>
    1258:	78fb      	ldrb	r3, [r7, #3]
    125a:	2200      	movs	r2, #0
    125c:	4619      	mov	r1, r3
    125e:	6878      	ldr	r0, [r7, #4]
    1260:	f7ff ff96 	bl	1190 <LP_FLEXCOMM_SetPeriph>
    1264:	4603      	mov	r3, r0
    1266:	4618      	mov	r0, r3
    1268:	3708      	adds	r7, #8
    126a:	46bd      	mov	sp, r7
    126c:	bd80      	pop	{r7, pc}
    126e:	bf00      	nop
    1270:	00004b28 	.word	0x00004b28
    1274:	00004aa8 	.word	0x00004aa8
    1278:	00004abc 	.word	0x00004abc

0000127c <LP_FLEXCOMM_CommonIRQHandler>:
    127c:	b580      	push	{r7, lr}
    127e:	b084      	sub	sp, #16
    1280:	af00      	add	r7, sp, #0
    1282:	6078      	str	r0, [r7, #4]
    1284:	6878      	ldr	r0, [r7, #4]
    1286:	f7ff ff6f 	bl	1168 <LP_FLEXCOMM_GetInterruptStatus>
    128a:	60f8      	str	r0, [r7, #12]
    128c:	68fb      	ldr	r3, [r7, #12]
    128e:	f003 0330 	and.w	r3, r3, #48	@ 0x30
    1292:	2b00      	cmp	r3, #0
    1294:	d013      	beq.n	12be <LP_FLEXCOMM_CommonIRQHandler+0x42>
    1296:	4a25      	ldr	r2, [pc, #148]	@ (132c <LP_FLEXCOMM_CommonIRQHandler+0xb0>)
    1298:	687b      	ldr	r3, [r7, #4]
    129a:	331e      	adds	r3, #30
    129c:	f852 3023 	ldr.w	r3, [r2, r3, lsl #2]
    12a0:	2b00      	cmp	r3, #0
    12a2:	d00c      	beq.n	12be <LP_FLEXCOMM_CommonIRQHandler+0x42>
    12a4:	4a21      	ldr	r2, [pc, #132]	@ (132c <LP_FLEXCOMM_CommonIRQHandler+0xb0>)
    12a6:	687b      	ldr	r3, [r7, #4]
    12a8:	331e      	adds	r3, #30
    12aa:	f852 3023 	ldr.w	r3, [r2, r3, lsl #2]
    12ae:	4920      	ldr	r1, [pc, #128]	@ (1330 <LP_FLEXCOMM_CommonIRQHandler+0xb4>)
    12b0:	687a      	ldr	r2, [r7, #4]
    12b2:	321e      	adds	r2, #30
    12b4:	f851 2022 	ldr.w	r2, [r1, r2, lsl #2]
    12b8:	4611      	mov	r1, r2
    12ba:	6878      	ldr	r0, [r7, #4]
    12bc:	4798      	blx	r3
    12be:	68fb      	ldr	r3, [r7, #12]
    12c0:	f003 0303 	and.w	r3, r3, #3
    12c4:	2b00      	cmp	r3, #0
    12c6:	d013      	beq.n	12f0 <LP_FLEXCOMM_CommonIRQHandler+0x74>
    12c8:	4a18      	ldr	r2, [pc, #96]	@ (132c <LP_FLEXCOMM_CommonIRQHandler+0xb0>)
    12ca:	687b      	ldr	r3, [r7, #4]
    12cc:	330a      	adds	r3, #10
    12ce:	f852 3023 	ldr.w	r3, [r2, r3, lsl #2]
    12d2:	2b00      	cmp	r3, #0
    12d4:	d00c      	beq.n	12f0 <LP_FLEXCOMM_CommonIRQHandler+0x74>
    12d6:	4a15      	ldr	r2, [pc, #84]	@ (132c <LP_FLEXCOMM_CommonIRQHandler+0xb0>)
    12d8:	687b      	ldr	r3, [r7, #4]
    12da:	330a      	adds	r3, #10
    12dc:	f852 3023 	ldr.w	r3, [r2, r3, lsl #2]
    12e0:	4913      	ldr	r1, [pc, #76]	@ (1330 <LP_FLEXCOMM_CommonIRQHandler+0xb4>)
    12e2:	687a      	ldr	r2, [r7, #4]
    12e4:	320a      	adds	r2, #10
    12e6:	f851 2022 	ldr.w	r2, [r1, r2, lsl #2]
    12ea:	4611      	mov	r1, r2
    12ec:	6878      	ldr	r0, [r7, #4]
    12ee:	4798      	blx	r3
    12f0:	68fb      	ldr	r3, [r7, #12]
    12f2:	f003 0304 	and.w	r3, r3, #4
    12f6:	2b00      	cmp	r3, #0
    12f8:	d013      	beq.n	1322 <LP_FLEXCOMM_CommonIRQHandler+0xa6>
    12fa:	4a0c      	ldr	r2, [pc, #48]	@ (132c <LP_FLEXCOMM_CommonIRQHandler+0xb0>)
    12fc:	687b      	ldr	r3, [r7, #4]
    12fe:	3314      	adds	r3, #20
    1300:	f852 3023 	ldr.w	r3, [r2, r3, lsl #2]
    1304:	2b00      	cmp	r3, #0
    1306:	d00c      	beq.n	1322 <LP_FLEXCOMM_CommonIRQHandler+0xa6>
    1308:	4a08      	ldr	r2, [pc, #32]	@ (132c <LP_FLEXCOMM_CommonIRQHandler+0xb0>)
    130a:	687b      	ldr	r3, [r7, #4]
    130c:	3314      	adds	r3, #20
    130e:	f852 3023 	ldr.w	r3, [r2, r3, lsl #2]
    1312:	4907      	ldr	r1, [pc, #28]	@ (1330 <LP_FLEXCOMM_CommonIRQHandler+0xb4>)
    1314:	687a      	ldr	r2, [r7, #4]
    1316:	3214      	adds	r2, #20
    1318:	f851 2022 	ldr.w	r2, [r1, r2, lsl #2]
    131c:	4611      	mov	r1, r2
    131e:	6878      	ldr	r0, [r7, #4]
    1320:	4798      	blx	r3
    1322:	bf00      	nop
    1324:	3710      	adds	r7, #16
    1326:	46bd      	mov	sp, r7
    1328:	bd80      	pop	{r7, pc}
    132a:	bf00      	nop
    132c:	2000014c 	.word	0x2000014c
    1330:	200001ec 	.word	0x200001ec

00001334 <LPUART_GetInstance>:
    1334:	b580      	push	{r7, lr}
    1336:	b084      	sub	sp, #16
    1338:	af00      	add	r7, sp, #0
    133a:	6078      	str	r0, [r7, #4]
    133c:	2300      	movs	r3, #0
    133e:	60fb      	str	r3, [r7, #12]
    1340:	e009      	b.n	1356 <LPUART_GetInstance+0x22>
    1342:	4a0d      	ldr	r2, [pc, #52]	@ (1378 <LPUART_GetInstance+0x44>)
    1344:	68fb      	ldr	r3, [r7, #12]
    1346:	f852 3023 	ldr.w	r3, [r2, r3, lsl #2]
    134a:	687a      	ldr	r2, [r7, #4]
    134c:	429a      	cmp	r2, r3
    134e:	d006      	beq.n	135e <LPUART_GetInstance+0x2a>
    1350:	68fb      	ldr	r3, [r7, #12]
    1352:	3301      	adds	r3, #1
    1354:	60fb      	str	r3, [r7, #12]
    1356:	68fb      	ldr	r3, [r7, #12]
    1358:	2b09      	cmp	r3, #9
    135a:	d9f2      	bls.n	1342 <LPUART_GetInstance+0xe>
    135c:	e000      	b.n	1360 <LPUART_GetInstance+0x2c>
    135e:	bf00      	nop
    1360:	68fb      	ldr	r3, [r7, #12]
    1362:	2b09      	cmp	r3, #9
    1364:	d902      	bls.n	136c <LPUART_GetInstance+0x38>
    1366:	4805      	ldr	r0, [pc, #20]	@ (137c <LPUART_GetInstance+0x48>)
    1368:	f7ff f822 	bl	3b0 <__assertion_failed>
    136c:	68fb      	ldr	r3, [r7, #12]
    136e:	4618      	mov	r0, r3
    1370:	3710      	adds	r7, #16
    1372:	46bd      	mov	sp, r7
    1374:	bd80      	pop	{r7, pc}
    1376:	bf00      	nop
    1378:	00004b74 	.word	0x00004b74
    137c:	00004b9c 	.word	0x00004b9c

00001380 <LPUART_Init>:
    1380:	b580      	push	{r7, lr}
    1382:	b08c      	sub	sp, #48	@ 0x30
    1384:	af00      	add	r7, sp, #0
    1386:	60f8      	str	r0, [r7, #12]
    1388:	60b9      	str	r1, [r7, #8]
    138a:	607a      	str	r2, [r7, #4]
    138c:	68bb      	ldr	r3, [r7, #8]
    138e:	2b00      	cmp	r3, #0
    1390:	d102      	bne.n	1398 <LPUART_Init+0x18>
    1392:	4877      	ldr	r0, [pc, #476]	@ (1570 <LPUART_Init+0x1f0>)
    1394:	f7ff f80c 	bl	3b0 <__assertion_failed>
    1398:	68bb      	ldr	r3, [r7, #8]
    139a:	681b      	ldr	r3, [r3, #0]
    139c:	2b00      	cmp	r3, #0
    139e:	d102      	bne.n	13a6 <LPUART_Init+0x26>
    13a0:	4874      	ldr	r0, [pc, #464]	@ (1574 <LPUART_Init+0x1f4>)
    13a2:	f7ff f805 	bl	3b0 <__assertion_failed>
    13a6:	68bb      	ldr	r3, [r7, #8]
    13a8:	7a1b      	ldrb	r3, [r3, #8]
    13aa:	2b07      	cmp	r3, #7
    13ac:	d902      	bls.n	13b4 <LPUART_Init+0x34>
    13ae:	4872      	ldr	r0, [pc, #456]	@ (1578 <LPUART_Init+0x1f8>)
    13b0:	f7fe fffe 	bl	3b0 <__assertion_failed>
    13b4:	68bb      	ldr	r3, [r7, #8]
    13b6:	7a5b      	ldrb	r3, [r3, #9]
    13b8:	2b07      	cmp	r3, #7
    13ba:	d902      	bls.n	13c2 <LPUART_Init+0x42>
    13bc:	486f      	ldr	r0, [pc, #444]	@ (157c <LPUART_Init+0x1fc>)
    13be:	f7fe fff7 	bl	3b0 <__assertion_failed>
    13c2:	2300      	movs	r3, #0
    13c4:	62fb      	str	r3, [r7, #44]	@ 0x2c
    13c6:	68bb      	ldr	r3, [r7, #8]
    13c8:	681b      	ldr	r3, [r3, #0]
    13ca:	61fb      	str	r3, [r7, #28]
    13cc:	2300      	movs	r3, #0
    13ce:	f887 3023 	strb.w	r3, [r7, #35]	@ 0x23
    13d2:	2300      	movs	r3, #0
    13d4:	84fb      	strh	r3, [r7, #38]	@ 0x26
    13d6:	2304      	movs	r3, #4
    13d8:	f887 3022 	strb.w	r3, [r7, #34]	@ 0x22
    13dc:	e049      	b.n	1472 <LPUART_Init+0xf2>
    13de:	687a      	ldr	r2, [r7, #4]
    13e0:	4613      	mov	r3, r2
    13e2:	009b      	lsls	r3, r3, #2
    13e4:	4413      	add	r3, r2
    13e6:	005b      	lsls	r3, r3, #1
    13e8:	4619      	mov	r1, r3
    13ea:	68bb      	ldr	r3, [r7, #8]
    13ec:	681b      	ldr	r3, [r3, #0]
    13ee:	f897 2022 	ldrb.w	r2, [r7, #34]	@ 0x22
    13f2:	fb02 f303 	mul.w	r3, r2, r3
    13f6:	fbb1 f3f3 	udiv	r3, r1, r3
    13fa:	3305      	adds	r3, #5
    13fc:	4a60      	ldr	r2, [pc, #384]	@ (1580 <LPUART_Init+0x200>)
    13fe:	fba2 2303 	umull	r2, r3, r2, r3
    1402:	08db      	lsrs	r3, r3, #3
    1404:	84bb      	strh	r3, [r7, #36]	@ 0x24
    1406:	8cbb      	ldrh	r3, [r7, #36]	@ 0x24
    1408:	2b00      	cmp	r3, #0
    140a:	d102      	bne.n	1412 <LPUART_Init+0x92>
    140c:	2301      	movs	r3, #1
    140e:	84bb      	strh	r3, [r7, #36]	@ 0x24
    1410:	e006      	b.n	1420 <LPUART_Init+0xa0>
    1412:	8cbb      	ldrh	r3, [r7, #36]	@ 0x24
    1414:	f5b3 5f00 	cmp.w	r3, #8192	@ 0x2000
    1418:	d302      	bcc.n	1420 <LPUART_Init+0xa0>
    141a:	f641 73ff 	movw	r3, #8191	@ 0x1fff
    141e:	84bb      	strh	r3, [r7, #36]	@ 0x24
    1420:	f897 3022 	ldrb.w	r3, [r7, #34]	@ 0x22
    1424:	8cba      	ldrh	r2, [r7, #36]	@ 0x24
    1426:	fb02 f303 	mul.w	r3, r2, r3
    142a:	687a      	ldr	r2, [r7, #4]
    142c:	fbb2 f3f3 	udiv	r3, r2, r3
    1430:	61bb      	str	r3, [r7, #24]
    1432:	68bb      	ldr	r3, [r7, #8]
    1434:	681b      	ldr	r3, [r3, #0]
    1436:	69ba      	ldr	r2, [r7, #24]
    1438:	429a      	cmp	r2, r3
    143a:	d904      	bls.n	1446 <LPUART_Init+0xc6>
    143c:	68bb      	ldr	r3, [r7, #8]
    143e:	681b      	ldr	r3, [r3, #0]
    1440:	69ba      	ldr	r2, [r7, #24]
    1442:	1ad3      	subs	r3, r2, r3
    1444:	e003      	b.n	144e <LPUART_Init+0xce>
    1446:	68bb      	ldr	r3, [r7, #8]
    1448:	681a      	ldr	r2, [r3, #0]
    144a:	69bb      	ldr	r3, [r7, #24]
    144c:	1ad3      	subs	r3, r2, r3
    144e:	617b      	str	r3, [r7, #20]
    1450:	697a      	ldr	r2, [r7, #20]
    1452:	69fb      	ldr	r3, [r7, #28]
    1454:	429a      	cmp	r2, r3
    1456:	d807      	bhi.n	1468 <LPUART_Init+0xe8>
    1458:	697b      	ldr	r3, [r7, #20]
    145a:	61fb      	str	r3, [r7, #28]
    145c:	f897 3022 	ldrb.w	r3, [r7, #34]	@ 0x22
    1460:	f887 3023 	strb.w	r3, [r7, #35]	@ 0x23
    1464:	8cbb      	ldrh	r3, [r7, #36]	@ 0x24
    1466:	84fb      	strh	r3, [r7, #38]	@ 0x26
    1468:	f897 3022 	ldrb.w	r3, [r7, #34]	@ 0x22
    146c:	3301      	adds	r3, #1
    146e:	f887 3022 	strb.w	r3, [r7, #34]	@ 0x22
    1472:	f897 3022 	ldrb.w	r3, [r7, #34]	@ 0x22
    1476:	2b20      	cmp	r3, #32
    1478:	d9b1      	bls.n	13de <LPUART_Init+0x5e>
    147a:	68bb      	ldr	r3, [r7, #8]
    147c:	681b      	ldr	r3, [r3, #0]
    147e:	4a41      	ldr	r2, [pc, #260]	@ (1584 <LPUART_Init+0x204>)
    1480:	fba2 2303 	umull	r2, r3, r2, r3
    1484:	095a      	lsrs	r2, r3, #5
    1486:	4613      	mov	r3, r2
    1488:	005b      	lsls	r3, r3, #1
    148a:	4413      	add	r3, r2
    148c:	69fa      	ldr	r2, [r7, #28]
    148e:	429a      	cmp	r2, r3
    1490:	d903      	bls.n	149a <LPUART_Init+0x11a>
    1492:	f240 5321 	movw	r3, #1313	@ 0x521
    1496:	62fb      	str	r3, [r7, #44]	@ 0x2c
    1498:	e14d      	b.n	1736 <LPUART_Init+0x3b6>
    149a:	68f8      	ldr	r0, [r7, #12]
    149c:	f7ff ff4a 	bl	1334 <LPUART_GetInstance>
    14a0:	4603      	mov	r3, r0
    14a2:	2101      	movs	r1, #1
    14a4:	4618      	mov	r0, r3
    14a6:	f7ff febd 	bl	1224 <LP_FLEXCOMM_Init>
    14aa:	62f8      	str	r0, [r7, #44]	@ 0x2c
    14ac:	6afb      	ldr	r3, [r7, #44]	@ 0x2c
    14ae:	2b00      	cmp	r3, #0
    14b0:	d001      	beq.n	14b6 <LPUART_Init+0x136>
    14b2:	6afb      	ldr	r3, [r7, #44]	@ 0x2c
    14b4:	e140      	b.n	1738 <LPUART_Init+0x3b8>
    14b6:	68f8      	ldr	r0, [r7, #12]
    14b8:	f002 fcca 	bl	3e50 <LPUART_SoftwareReset>
    14bc:	68fb      	ldr	r3, [r7, #12]
    14be:	691b      	ldr	r3, [r3, #16]
    14c0:	62bb      	str	r3, [r7, #40]	@ 0x28
    14c2:	f897 3023 	ldrb.w	r3, [r7, #35]	@ 0x23
    14c6:	2b03      	cmp	r3, #3
    14c8:	d907      	bls.n	14da <LPUART_Init+0x15a>
    14ca:	f897 3023 	ldrb.w	r3, [r7, #35]	@ 0x23
    14ce:	2b07      	cmp	r3, #7
    14d0:	d803      	bhi.n	14da <LPUART_Init+0x15a>
    14d2:	6abb      	ldr	r3, [r7, #40]	@ 0x28
    14d4:	f443 3300 	orr.w	r3, r3, #131072	@ 0x20000
    14d8:	62bb      	str	r3, [r7, #40]	@ 0x28
    14da:	6abb      	ldr	r3, [r7, #40]	@ 0x28
    14dc:	f023 53f8 	bic.w	r3, r3, #520093696	@ 0x1f000000
    14e0:	62bb      	str	r3, [r7, #40]	@ 0x28
    14e2:	f897 3023 	ldrb.w	r3, [r7, #35]	@ 0x23
    14e6:	3b01      	subs	r3, #1
    14e8:	061b      	lsls	r3, r3, #24
    14ea:	f003 53f8 	and.w	r3, r3, #520093696	@ 0x1f000000
    14ee:	6aba      	ldr	r2, [r7, #40]	@ 0x28
    14f0:	4313      	orrs	r3, r2
    14f2:	62bb      	str	r3, [r7, #40]	@ 0x28
    14f4:	6abb      	ldr	r3, [r7, #40]	@ 0x28
    14f6:	f423 53ff 	bic.w	r3, r3, #8160	@ 0x1fe0
    14fa:	f023 031f 	bic.w	r3, r3, #31
    14fe:	62bb      	str	r3, [r7, #40]	@ 0x28
    1500:	8cfb      	ldrh	r3, [r7, #38]	@ 0x26
    1502:	f3c3 020c 	ubfx	r2, r3, #0, #13
    1506:	6abb      	ldr	r3, [r7, #40]	@ 0x28
    1508:	431a      	orrs	r2, r3
    150a:	68fb      	ldr	r3, [r7, #12]
    150c:	611a      	str	r2, [r3, #16]
    150e:	68fb      	ldr	r3, [r7, #12]
    1510:	691b      	ldr	r3, [r3, #16]
    1512:	f023 5200 	bic.w	r2, r3, #536870912	@ 0x20000000
    1516:	68fb      	ldr	r3, [r7, #12]
    1518:	611a      	str	r2, [r3, #16]
    151a:	68fb      	ldr	r3, [r7, #12]
    151c:	699b      	ldr	r3, [r3, #24]
    151e:	f423 63e2 	bic.w	r3, r3, #1808	@ 0x710
    1522:	f023 0307 	bic.w	r3, r3, #7
    1526:	62bb      	str	r3, [r7, #40]	@ 0x28
    1528:	68bb      	ldr	r3, [r7, #8]
    152a:	791b      	ldrb	r3, [r3, #4]
    152c:	461a      	mov	r2, r3
    152e:	68bb      	ldr	r3, [r7, #8]
    1530:	7bdb      	ldrb	r3, [r3, #15]
    1532:	021b      	lsls	r3, r3, #8
    1534:	f403 63e0 	and.w	r3, r3, #1792	@ 0x700
    1538:	431a      	orrs	r2, r3
    153a:	68bb      	ldr	r3, [r7, #8]
    153c:	7b9b      	ldrb	r3, [r3, #14]
    153e:	009b      	lsls	r3, r3, #2
    1540:	f003 0304 	and.w	r3, r3, #4
    1544:	4313      	orrs	r3, r2
    1546:	6aba      	ldr	r2, [r7, #40]	@ 0x28
    1548:	4313      	orrs	r3, r2
    154a:	62bb      	str	r3, [r7, #40]	@ 0x28
    154c:	68bb      	ldr	r3, [r7, #8]
    154e:	795b      	ldrb	r3, [r3, #5]
    1550:	2b01      	cmp	r3, #1
    1552:	d119      	bne.n	1588 <LPUART_Init+0x208>
    1554:	68bb      	ldr	r3, [r7, #8]
    1556:	791b      	ldrb	r3, [r3, #4]
    1558:	2b00      	cmp	r3, #0
    155a:	d004      	beq.n	1566 <LPUART_Init+0x1e6>
    155c:	6abb      	ldr	r3, [r7, #40]	@ 0x28
    155e:	f423 6300 	bic.w	r3, r3, #2048	@ 0x800
    1562:	62bb      	str	r3, [r7, #40]	@ 0x28
    1564:	e018      	b.n	1598 <LPUART_Init+0x218>
    1566:	6abb      	ldr	r3, [r7, #40]	@ 0x28
    1568:	f443 6300 	orr.w	r3, r3, #2048	@ 0x800
    156c:	62bb      	str	r3, [r7, #40]	@ 0x28
    156e:	e013      	b.n	1598 <LPUART_Init+0x218>
    1570:	00004bd4 	.word	0x00004bd4
    1574:	00004bf8 	.word	0x00004bf8
    1578:	00004c28 	.word	0x00004c28
    157c:	00004c84 	.word	0x00004c84
    1580:	cccccccd 	.word	0xcccccccd
    1584:	51eb851f 	.word	0x51eb851f
    1588:	68bb      	ldr	r3, [r7, #8]
    158a:	791b      	ldrb	r3, [r3, #4]
    158c:	2b00      	cmp	r3, #0
    158e:	d003      	beq.n	1598 <LPUART_Init+0x218>
    1590:	6abb      	ldr	r3, [r7, #40]	@ 0x28
    1592:	f043 0310 	orr.w	r3, r3, #16
    1596:	62bb      	str	r3, [r7, #40]	@ 0x28
    1598:	68fb      	ldr	r3, [r7, #12]
    159a:	6aba      	ldr	r2, [r7, #40]	@ 0x28
    159c:	619a      	str	r2, [r3, #24]
    159e:	68fb      	ldr	r3, [r7, #12]
    15a0:	691b      	ldr	r3, [r3, #16]
    15a2:	f423 5300 	bic.w	r3, r3, #8192	@ 0x2000
    15a6:	62bb      	str	r3, [r7, #40]	@ 0x28
    15a8:	68bb      	ldr	r3, [r7, #8]
    15aa:	79db      	ldrb	r3, [r3, #7]
    15ac:	035b      	lsls	r3, r3, #13
    15ae:	f403 5200 	and.w	r2, r3, #8192	@ 0x2000
    15b2:	6abb      	ldr	r3, [r7, #40]	@ 0x28
    15b4:	431a      	orrs	r2, r3
    15b6:	68fb      	ldr	r3, [r7, #12]
    15b8:	611a      	str	r2, [r3, #16]
    15ba:	68bb      	ldr	r3, [r7, #8]
    15bc:	7a5b      	ldrb	r3, [r3, #9]
    15be:	041b      	lsls	r3, r3, #16
    15c0:	68ba      	ldr	r2, [r7, #8]
    15c2:	7a12      	ldrb	r2, [r2, #8]
    15c4:	431a      	orrs	r2, r3
    15c6:	68fb      	ldr	r3, [r7, #12]
    15c8:	62da      	str	r2, [r3, #44]	@ 0x2c
    15ca:	68fb      	ldr	r3, [r7, #12]
    15cc:	6a9b      	ldr	r3, [r3, #40]	@ 0x28
    15ce:	f043 0288 	orr.w	r2, r3, #136	@ 0x88
    15d2:	68fb      	ldr	r3, [r7, #12]
    15d4:	629a      	str	r2, [r3, #40]	@ 0x28
    15d6:	68fb      	ldr	r3, [r7, #12]
    15d8:	6a9b      	ldr	r3, [r3, #40]	@ 0x28
    15da:	f443 4240 	orr.w	r2, r3, #49152	@ 0xc000
    15de:	68fb      	ldr	r3, [r7, #12]
    15e0:	629a      	str	r2, [r3, #40]	@ 0x28
    15e2:	4b57      	ldr	r3, [pc, #348]	@ (1740 <LPUART_Init+0x3c0>)
    15e4:	62bb      	str	r3, [r7, #40]	@ 0x28
    15e6:	6abb      	ldr	r3, [r7, #40]	@ 0x28
    15e8:	f043 4300 	orr.w	r3, r3, #2147483648	@ 0x80000000
    15ec:	62bb      	str	r3, [r7, #40]	@ 0x28
    15ee:	6abb      	ldr	r3, [r7, #40]	@ 0x28
    15f0:	f443 4340 	orr.w	r3, r3, #49152	@ 0xc000
    15f4:	62bb      	str	r3, [r7, #40]	@ 0x28
    15f6:	68fb      	ldr	r3, [r7, #12]
    15f8:	6a5a      	ldr	r2, [r3, #36]	@ 0x24
    15fa:	68bb      	ldr	r3, [r7, #8]
    15fc:	7b5b      	ldrb	r3, [r3, #13]
    15fe:	011b      	lsls	r3, r3, #4
    1600:	f003 0110 	and.w	r1, r3, #16
    1604:	68bb      	ldr	r3, [r7, #8]
    1606:	7b1b      	ldrb	r3, [r3, #12]
    1608:	015b      	lsls	r3, r3, #5
    160a:	f003 0320 	and.w	r3, r3, #32
    160e:	430b      	orrs	r3, r1
    1610:	431a      	orrs	r2, r3
    1612:	68fb      	ldr	r3, [r7, #12]
    1614:	625a      	str	r2, [r3, #36]	@ 0x24
    1616:	68bb      	ldr	r3, [r7, #8]
    1618:	7a9b      	ldrb	r3, [r3, #10]
    161a:	2b00      	cmp	r3, #0
    161c:	d005      	beq.n	162a <LPUART_Init+0x2aa>
    161e:	68fb      	ldr	r3, [r7, #12]
    1620:	6a5b      	ldr	r3, [r3, #36]	@ 0x24
    1622:	f043 0208 	orr.w	r2, r3, #8
    1626:	68fb      	ldr	r3, [r7, #12]
    1628:	625a      	str	r2, [r3, #36]	@ 0x24
    162a:	68bb      	ldr	r3, [r7, #8]
    162c:	7adb      	ldrb	r3, [r3, #11]
    162e:	2b00      	cmp	r3, #0
    1630:	d005      	beq.n	163e <LPUART_Init+0x2be>
    1632:	68fb      	ldr	r3, [r7, #12]
    1634:	6a5b      	ldr	r3, [r3, #36]	@ 0x24
    1636:	f043 0201 	orr.w	r2, r3, #1
    163a:	68fb      	ldr	r3, [r7, #12]
    163c:	625a      	str	r2, [r3, #36]	@ 0x24
    163e:	68bb      	ldr	r3, [r7, #8]
    1640:	799b      	ldrb	r3, [r3, #6]
    1642:	2b00      	cmp	r3, #0
    1644:	d004      	beq.n	1650 <LPUART_Init+0x2d0>
    1646:	6abb      	ldr	r3, [r7, #40]	@ 0x28
    1648:	f043 5300 	orr.w	r3, r3, #536870912	@ 0x20000000
    164c:	62bb      	str	r3, [r7, #40]	@ 0x28
    164e:	e003      	b.n	1658 <LPUART_Init+0x2d8>
    1650:	6abb      	ldr	r3, [r7, #40]	@ 0x28
    1652:	f023 5300 	bic.w	r3, r3, #536870912	@ 0x20000000
    1656:	62bb      	str	r3, [r7, #40]	@ 0x28
    1658:	68fb      	ldr	r3, [r7, #12]
    165a:	695a      	ldr	r2, [r3, #20]
    165c:	6abb      	ldr	r3, [r7, #40]	@ 0x28
    165e:	431a      	orrs	r2, r3
    1660:	68fb      	ldr	r3, [r7, #12]
    1662:	615a      	str	r2, [r3, #20]
    1664:	68fb      	ldr	r3, [r7, #12]
    1666:	699b      	ldr	r3, [r3, #24]
    1668:	62bb      	str	r3, [r7, #40]	@ 0x28
    166a:	68bb      	ldr	r3, [r7, #8]
    166c:	f893 3026 	ldrb.w	r3, [r3, #38]	@ 0x26
    1670:	2b00      	cmp	r3, #0
    1672:	d003      	beq.n	167c <LPUART_Init+0x2fc>
    1674:	6abb      	ldr	r3, [r7, #40]	@ 0x28
    1676:	f443 2300 	orr.w	r3, r3, #524288	@ 0x80000
    167a:	62bb      	str	r3, [r7, #40]	@ 0x28
    167c:	68bb      	ldr	r3, [r7, #8]
    167e:	f893 3027 	ldrb.w	r3, [r3, #39]	@ 0x27
    1682:	2b00      	cmp	r3, #0
    1684:	d003      	beq.n	168e <LPUART_Init+0x30e>
    1686:	6abb      	ldr	r3, [r7, #40]	@ 0x28
    1688:	f443 2380 	orr.w	r3, r3, #262144	@ 0x40000
    168c:	62bb      	str	r3, [r7, #40]	@ 0x28
    168e:	68fb      	ldr	r3, [r7, #12]
    1690:	6aba      	ldr	r2, [r7, #40]	@ 0x28
    1692:	619a      	str	r2, [r3, #24]
    1694:	68bb      	ldr	r3, [r7, #8]
    1696:	8a1b      	ldrh	r3, [r3, #16]
    1698:	461a      	mov	r2, r3
    169a:	68fb      	ldr	r3, [r7, #12]
    169c:	649a      	str	r2, [r3, #72]	@ 0x48
    169e:	68bb      	ldr	r3, [r7, #8]
    16a0:	8a5b      	ldrh	r3, [r3, #18]
    16a2:	461a      	mov	r2, r3
    16a4:	68fb      	ldr	r3, [r7, #12]
    16a6:	64da      	str	r2, [r3, #76]	@ 0x4c
    16a8:	68fb      	ldr	r3, [r7, #12]
    16aa:	6d9a      	ldr	r2, [r3, #88]	@ 0x58
    16ac:	68bb      	ldr	r3, [r7, #8]
    16ae:	7d1b      	ldrb	r3, [r3, #20]
    16b0:	4619      	mov	r1, r3
    16b2:	68bb      	ldr	r3, [r7, #8]
    16b4:	7e1b      	ldrb	r3, [r3, #24]
    16b6:	005b      	lsls	r3, r3, #1
    16b8:	4319      	orrs	r1, r3
    16ba:	68bb      	ldr	r3, [r7, #8]
    16bc:	7f1b      	ldrb	r3, [r3, #28]
    16be:	009b      	lsls	r3, r3, #2
    16c0:	4319      	orrs	r1, r3
    16c2:	68bb      	ldr	r3, [r7, #8]
    16c4:	f893 3020 	ldrb.w	r3, [r3, #32]
    16c8:	00db      	lsls	r3, r3, #3
    16ca:	430b      	orrs	r3, r1
    16cc:	431a      	orrs	r2, r3
    16ce:	68fb      	ldr	r3, [r7, #12]
    16d0:	659a      	str	r2, [r3, #88]	@ 0x58
    16d2:	68bb      	ldr	r3, [r7, #8]
    16d4:	7d5b      	ldrb	r3, [r3, #21]
    16d6:	079b      	lsls	r3, r3, #30
    16d8:	68ba      	ldr	r2, [r7, #8]
    16da:	8ad2      	ldrh	r2, [r2, #22]
    16dc:	431a      	orrs	r2, r3
    16de:	68fb      	ldr	r3, [r7, #12]
    16e0:	661a      	str	r2, [r3, #96]	@ 0x60
    16e2:	68bb      	ldr	r3, [r7, #8]
    16e4:	7e5b      	ldrb	r3, [r3, #25]
    16e6:	079b      	lsls	r3, r3, #30
    16e8:	68ba      	ldr	r2, [r7, #8]
    16ea:	8b52      	ldrh	r2, [r2, #26]
    16ec:	431a      	orrs	r2, r3
    16ee:	68fb      	ldr	r3, [r7, #12]
    16f0:	665a      	str	r2, [r3, #100]	@ 0x64
    16f2:	68bb      	ldr	r3, [r7, #8]
    16f4:	7f5b      	ldrb	r3, [r3, #29]
    16f6:	079b      	lsls	r3, r3, #30
    16f8:	68ba      	ldr	r2, [r7, #8]
    16fa:	8bd2      	ldrh	r2, [r2, #30]
    16fc:	431a      	orrs	r2, r3
    16fe:	68fb      	ldr	r3, [r7, #12]
    1700:	669a      	str	r2, [r3, #104]	@ 0x68
    1702:	68bb      	ldr	r3, [r7, #8]
    1704:	f893 3021 	ldrb.w	r3, [r3, #33]	@ 0x21
    1708:	079b      	lsls	r3, r3, #30
    170a:	68ba      	ldr	r2, [r7, #8]
    170c:	8c52      	ldrh	r2, [r2, #34]	@ 0x22
    170e:	431a      	orrs	r2, r3
    1710:	68fb      	ldr	r3, [r7, #12]
    1712:	66da      	str	r2, [r3, #108]	@ 0x6c
    1714:	68bb      	ldr	r3, [r7, #8]
    1716:	f893 3025 	ldrb.w	r3, [r3, #37]	@ 0x25
    171a:	021a      	lsls	r2, r3, #8
    171c:	68fb      	ldr	r3, [r7, #12]
    171e:	651a      	str	r2, [r3, #80]	@ 0x50
    1720:	68bb      	ldr	r3, [r7, #8]
    1722:	f893 3024 	ldrb.w	r3, [r3, #36]	@ 0x24
    1726:	2b00      	cmp	r3, #0
    1728:	d005      	beq.n	1736 <LPUART_Init+0x3b6>
    172a:	68fb      	ldr	r3, [r7, #12]
    172c:	6d1b      	ldr	r3, [r3, #80]	@ 0x50
    172e:	f043 020f 	orr.w	r2, r3, #15
    1732:	68fb      	ldr	r3, [r7, #12]
    1734:	651a      	str	r2, [r3, #80]	@ 0x50
    1736:	6afb      	ldr	r3, [r7, #44]	@ 0x2c
    1738:	4618      	mov	r0, r3
    173a:	3730      	adds	r7, #48	@ 0x30
    173c:	46bd      	mov	sp, r7
    173e:	bd80      	pop	{r7, pc}
    1740:	401f0000 	.word	0x401f0000

00001744 <LPUART_GetDefaultConfig>:
    1744:	b580      	push	{r7, lr}
    1746:	b082      	sub	sp, #8
    1748:	af00      	add	r7, sp, #0
    174a:	6078      	str	r0, [r7, #4]
    174c:	687b      	ldr	r3, [r7, #4]
    174e:	2b00      	cmp	r3, #0
    1750:	d102      	bne.n	1758 <LPUART_GetDefaultConfig+0x14>
    1752:	481e      	ldr	r0, [pc, #120]	@ (17cc <LPUART_GetDefaultConfig+0x88>)
    1754:	f7fe fe2c 	bl	3b0 <__assertion_failed>
    1758:	2228      	movs	r2, #40	@ 0x28
    175a:	2100      	movs	r1, #0
    175c:	6878      	ldr	r0, [r7, #4]
    175e:	f002 fd98 	bl	4292 <memset>
    1762:	687b      	ldr	r3, [r7, #4]
    1764:	f44f 32e1 	mov.w	r2, #115200	@ 0x1c200
    1768:	601a      	str	r2, [r3, #0]
    176a:	687b      	ldr	r3, [r7, #4]
    176c:	2200      	movs	r2, #0
    176e:	711a      	strb	r2, [r3, #4]
    1770:	687b      	ldr	r3, [r7, #4]
    1772:	2200      	movs	r2, #0
    1774:	715a      	strb	r2, [r3, #5]
    1776:	687b      	ldr	r3, [r7, #4]
    1778:	2200      	movs	r2, #0
    177a:	719a      	strb	r2, [r3, #6]
    177c:	687b      	ldr	r3, [r7, #4]
    177e:	2200      	movs	r2, #0
    1780:	71da      	strb	r2, [r3, #7]
    1782:	687b      	ldr	r3, [r7, #4]
    1784:	2200      	movs	r2, #0
    1786:	721a      	strb	r2, [r3, #8]
    1788:	687b      	ldr	r3, [r7, #4]
    178a:	2200      	movs	r2, #0
    178c:	725a      	strb	r2, [r3, #9]
    178e:	687b      	ldr	r3, [r7, #4]
    1790:	2200      	movs	r2, #0
    1792:	729a      	strb	r2, [r3, #10]
    1794:	687b      	ldr	r3, [r7, #4]
    1796:	2200      	movs	r2, #0
    1798:	72da      	strb	r2, [r3, #11]
    179a:	687b      	ldr	r3, [r7, #4]
    179c:	2200      	movs	r2, #0
    179e:	735a      	strb	r2, [r3, #13]
    17a0:	687b      	ldr	r3, [r7, #4]
    17a2:	2200      	movs	r2, #0
    17a4:	731a      	strb	r2, [r3, #12]
    17a6:	687b      	ldr	r3, [r7, #4]
    17a8:	2200      	movs	r2, #0
    17aa:	739a      	strb	r2, [r3, #14]
    17ac:	687b      	ldr	r3, [r7, #4]
    17ae:	2200      	movs	r2, #0
    17b0:	73da      	strb	r2, [r3, #15]
    17b2:	687b      	ldr	r3, [r7, #4]
    17b4:	2200      	movs	r2, #0
    17b6:	f883 2026 	strb.w	r2, [r3, #38]	@ 0x26
    17ba:	687b      	ldr	r3, [r7, #4]
    17bc:	2200      	movs	r2, #0
    17be:	f883 2027 	strb.w	r2, [r3, #39]	@ 0x27
    17c2:	bf00      	nop
    17c4:	3708      	adds	r7, #8
    17c6:	46bd      	mov	sp, r7
    17c8:	bd80      	pop	{r7, pc}
    17ca:	bf00      	nop
    17cc:	00004ce0 	.word	0x00004ce0

000017d0 <LPUART_WriteBlocking>:
    17d0:	b580      	push	{r7, lr}
    17d2:	b086      	sub	sp, #24
    17d4:	af00      	add	r7, sp, #0
    17d6:	60f8      	str	r0, [r7, #12]
    17d8:	60b9      	str	r1, [r7, #8]
    17da:	607a      	str	r2, [r7, #4]
    17dc:	68bb      	ldr	r3, [r7, #8]
    17de:	2b00      	cmp	r3, #0
    17e0:	d102      	bne.n	17e8 <LPUART_WriteBlocking+0x18>
    17e2:	4814      	ldr	r0, [pc, #80]	@ (1834 <LPUART_WriteBlocking+0x64>)
    17e4:	f7fe fde4 	bl	3b0 <__assertion_failed>
    17e8:	68bb      	ldr	r3, [r7, #8]
    17ea:	617b      	str	r3, [r7, #20]
    17ec:	687b      	ldr	r3, [r7, #4]
    17ee:	613b      	str	r3, [r7, #16]
    17f0:	e011      	b.n	1816 <LPUART_WriteBlocking+0x46>
    17f2:	bf00      	nop
    17f4:	68fb      	ldr	r3, [r7, #12]
    17f6:	695b      	ldr	r3, [r3, #20]
    17f8:	f403 0300 	and.w	r3, r3, #8388608	@ 0x800000
    17fc:	2b00      	cmp	r3, #0
    17fe:	d0f9      	beq.n	17f4 <LPUART_WriteBlocking+0x24>
    1800:	697b      	ldr	r3, [r7, #20]
    1802:	781b      	ldrb	r3, [r3, #0]
    1804:	461a      	mov	r2, r3
    1806:	68fb      	ldr	r3, [r7, #12]
    1808:	61da      	str	r2, [r3, #28]
    180a:	697b      	ldr	r3, [r7, #20]
    180c:	3301      	adds	r3, #1
    180e:	617b      	str	r3, [r7, #20]
    1810:	693b      	ldr	r3, [r7, #16]
    1812:	3b01      	subs	r3, #1
    1814:	613b      	str	r3, [r7, #16]
    1816:	693b      	ldr	r3, [r7, #16]
    1818:	2b00      	cmp	r3, #0
    181a:	d1ea      	bne.n	17f2 <LPUART_WriteBlocking+0x22>
    181c:	bf00      	nop
    181e:	68fb      	ldr	r3, [r7, #12]
    1820:	695b      	ldr	r3, [r3, #20]
    1822:	f403 0380 	and.w	r3, r3, #4194304	@ 0x400000
    1826:	2b00      	cmp	r3, #0
    1828:	d0f9      	beq.n	181e <LPUART_WriteBlocking+0x4e>
    182a:	2300      	movs	r3, #0
    182c:	4618      	mov	r0, r3
    182e:	3718      	adds	r7, #24
    1830:	46bd      	mov	sp, r7
    1832:	bd80      	pop	{r7, pc}
    1834:	00004d04 	.word	0x00004d04

00001838 <RESET_SetPeripheralReset>:
    1838:	b580      	push	{r7, lr}
    183a:	b086      	sub	sp, #24
    183c:	af00      	add	r7, sp, #0
    183e:	6078      	str	r0, [r7, #4]
    1840:	687b      	ldr	r3, [r7, #4]
    1842:	0c1b      	lsrs	r3, r3, #16
    1844:	617b      	str	r3, [r7, #20]
    1846:	687b      	ldr	r3, [r7, #4]
    1848:	b29b      	uxth	r3, r3
    184a:	613b      	str	r3, [r7, #16]
    184c:	2201      	movs	r2, #1
    184e:	693b      	ldr	r3, [r7, #16]
    1850:	fa02 f303 	lsl.w	r3, r2, r3
    1854:	60fb      	str	r3, [r7, #12]
    1856:	693b      	ldr	r3, [r7, #16]
    1858:	2b1f      	cmp	r3, #31
    185a:	d902      	bls.n	1862 <RESET_SetPeripheralReset+0x2a>
    185c:	480d      	ldr	r0, [pc, #52]	@ (1894 <RESET_SetPeripheralReset+0x5c>)
    185e:	f7fe fda7 	bl	3b0 <__assertion_failed>
    1862:	f04f 4180 	mov.w	r1, #1073741824	@ 0x40000000
    1866:	697b      	ldr	r3, [r7, #20]
    1868:	3348      	adds	r3, #72	@ 0x48
    186a:	68fa      	ldr	r2, [r7, #12]
    186c:	f841 2023 	str.w	r2, [r1, r3, lsl #2]
    1870:	4b09      	ldr	r3, [pc, #36]	@ (1898 <RESET_SetPeripheralReset+0x60>)
    1872:	60bb      	str	r3, [r7, #8]
    1874:	bf00      	nop
    1876:	697b      	ldr	r3, [r7, #20]
    1878:	009b      	lsls	r3, r3, #2
    187a:	68ba      	ldr	r2, [r7, #8]
    187c:	4413      	add	r3, r2
    187e:	681a      	ldr	r2, [r3, #0]
    1880:	68fb      	ldr	r3, [r7, #12]
    1882:	4013      	ands	r3, r2
    1884:	2b00      	cmp	r3, #0
    1886:	d0f6      	beq.n	1876 <RESET_SetPeripheralReset+0x3e>
    1888:	bf00      	nop
    188a:	bf00      	nop
    188c:	3718      	adds	r7, #24
    188e:	46bd      	mov	sp, r7
    1890:	bd80      	pop	{r7, pc}
    1892:	bf00      	nop
    1894:	00004d28 	.word	0x00004d28
    1898:	40000100 	.word	0x40000100

0000189c <RESET_ClearPeripheralReset>:
    189c:	b580      	push	{r7, lr}
    189e:	b086      	sub	sp, #24
    18a0:	af00      	add	r7, sp, #0
    18a2:	6078      	str	r0, [r7, #4]
    18a4:	687b      	ldr	r3, [r7, #4]
    18a6:	0c1b      	lsrs	r3, r3, #16
    18a8:	617b      	str	r3, [r7, #20]
    18aa:	687b      	ldr	r3, [r7, #4]
    18ac:	b29b      	uxth	r3, r3
    18ae:	613b      	str	r3, [r7, #16]
    18b0:	2201      	movs	r2, #1
    18b2:	693b      	ldr	r3, [r7, #16]
    18b4:	fa02 f303 	lsl.w	r3, r2, r3
    18b8:	60fb      	str	r3, [r7, #12]
    18ba:	693b      	ldr	r3, [r7, #16]
    18bc:	2b1f      	cmp	r3, #31
    18be:	d902      	bls.n	18c6 <RESET_ClearPeripheralReset+0x2a>
    18c0:	480d      	ldr	r0, [pc, #52]	@ (18f8 <RESET_ClearPeripheralReset+0x5c>)
    18c2:	f7fe fd75 	bl	3b0 <__assertion_failed>
    18c6:	f04f 4180 	mov.w	r1, #1073741824	@ 0x40000000
    18ca:	697b      	ldr	r3, [r7, #20]
    18cc:	3350      	adds	r3, #80	@ 0x50
    18ce:	68fa      	ldr	r2, [r7, #12]
    18d0:	f841 2023 	str.w	r2, [r1, r3, lsl #2]
    18d4:	4b09      	ldr	r3, [pc, #36]	@ (18fc <RESET_ClearPeripheralReset+0x60>)
    18d6:	60bb      	str	r3, [r7, #8]
    18d8:	bf00      	nop
    18da:	697b      	ldr	r3, [r7, #20]
    18dc:	009b      	lsls	r3, r3, #2
    18de:	68ba      	ldr	r2, [r7, #8]
    18e0:	4413      	add	r3, r2
    18e2:	681a      	ldr	r2, [r3, #0]
    18e4:	68fb      	ldr	r3, [r7, #12]
    18e6:	4013      	ands	r3, r2
    18e8:	68fa      	ldr	r2, [r7, #12]
    18ea:	429a      	cmp	r2, r3
    18ec:	d0f5      	beq.n	18da <RESET_ClearPeripheralReset+0x3e>
    18ee:	bf00      	nop
    18f0:	bf00      	nop
    18f2:	3718      	adds	r7, #24
    18f4:	46bd      	mov	sp, r7
    18f6:	bd80      	pop	{r7, pc}
    18f8:	00004d48 	.word	0x00004d48
    18fc:	40000100 	.word	0x40000100

00001900 <SystemInit>:
    1900:	b580      	push	{r7, lr}
    1902:	af00      	add	r7, sp, #0
    1904:	4b3d      	ldr	r3, [pc, #244]	@ (19fc <SystemInit+0xfc>)
    1906:	f8d3 3088 	ldr.w	r3, [r3, #136]	@ 0x88
    190a:	4a3c      	ldr	r2, [pc, #240]	@ (19fc <SystemInit+0xfc>)
    190c:	f443 0370 	orr.w	r3, r3, #15728640	@ 0xf00000
    1910:	f8c2 3088 	str.w	r3, [r2, #136]	@ 0x88
    1914:	4b39      	ldr	r3, [pc, #228]	@ (19fc <SystemInit+0xfc>)
    1916:	f8d3 3088 	ldr.w	r3, [r3, #136]	@ 0x88
    191a:	4a38      	ldr	r2, [pc, #224]	@ (19fc <SystemInit+0xfc>)
    191c:	f043 030f 	orr.w	r3, r3, #15
    1920:	f8c2 3088 	str.w	r3, [r2, #136]	@ 0x88
    1924:	4b35      	ldr	r3, [pc, #212]	@ (19fc <SystemInit+0xfc>)
    1926:	f8d3 308c 	ldr.w	r3, [r3, #140]	@ 0x8c
    192a:	4a34      	ldr	r2, [pc, #208]	@ (19fc <SystemInit+0xfc>)
    192c:	f443 6340 	orr.w	r3, r3, #3072	@ 0xc00
    1930:	f043 0303 	orr.w	r3, r3, #3
    1934:	f8c2 308c 	str.w	r3, [r2, #140]	@ 0x8c
    1938:	f04f 4380 	mov.w	r3, #1073741824	@ 0x40000000
    193c:	2200      	movs	r2, #0
    193e:	f8c3 2e44 	str.w	r2, [r3, #3652]	@ 0xe44
    1942:	f04f 4380 	mov.w	r3, #1073741824	@ 0x40000000
    1946:	f8d3 3400 	ldr.w	r3, [r3, #1024]	@ 0x400
    194a:	f04f 4280 	mov.w	r2, #1073741824	@ 0x40000000
    194e:	f423 3300 	bic.w	r3, r3, #131072	@ 0x20000
    1952:	f8c2 3400 	str.w	r3, [r2, #1024]	@ 0x400
    1956:	4b29      	ldr	r3, [pc, #164]	@ (19fc <SystemInit+0xfc>)
    1958:	4a29      	ldr	r2, [pc, #164]	@ (1a00 <SystemInit+0x100>)
    195a:	609a      	str	r2, [r3, #8]
    195c:	f04f 4380 	mov.w	r3, #1073741824	@ 0x40000000
    1960:	f8d3 3824 	ldr.w	r3, [r3, #2084]	@ 0x824
    1964:	f04f 4280 	mov.w	r2, #1073741824	@ 0x40000000
    1968:	f023 0301 	bic.w	r3, r3, #1
    196c:	f8c2 3824 	str.w	r3, [r2, #2084]	@ 0x824
    1970:	4b24      	ldr	r3, [pc, #144]	@ (1a04 <SystemInit+0x104>)
    1972:	6a9b      	ldr	r3, [r3, #40]	@ 0x28
    1974:	f423 2340 	bic.w	r3, r3, #786432	@ 0xc0000
    1978:	4a22      	ldr	r2, [pc, #136]	@ (1a04 <SystemInit+0x104>)
    197a:	f443 2300 	orr.w	r3, r3, #524288	@ 0x80000
    197e:	6293      	str	r3, [r2, #40]	@ 0x28
    1980:	4b20      	ldr	r3, [pc, #128]	@ (1a04 <SystemInit+0x104>)
    1982:	6adb      	ldr	r3, [r3, #44]	@ 0x2c
    1984:	f423 2340 	bic.w	r3, r3, #786432	@ 0xc0000
    1988:	4a1e      	ldr	r2, [pc, #120]	@ (1a04 <SystemInit+0x104>)
    198a:	f443 2300 	orr.w	r3, r3, #524288	@ 0x80000
    198e:	62d3      	str	r3, [r2, #44]	@ 0x2c
    1990:	4b1d      	ldr	r3, [pc, #116]	@ (1a08 <SystemInit+0x108>)
    1992:	f8d3 3100 	ldr.w	r3, [r3, #256]	@ 0x100
    1996:	4a1c      	ldr	r2, [pc, #112]	@ (1a08 <SystemInit+0x108>)
    1998:	f443 5380 	orr.w	r3, r3, #4096	@ 0x1000
    199c:	f8c2 3100 	str.w	r3, [r2, #256]	@ 0x100
    19a0:	4b19      	ldr	r3, [pc, #100]	@ (1a08 <SystemInit+0x108>)
    19a2:	f8d3 3144 	ldr.w	r3, [r3, #324]	@ 0x144
    19a6:	4a18      	ldr	r2, [pc, #96]	@ (1a08 <SystemInit+0x108>)
    19a8:	f423 3380 	bic.w	r3, r3, #65536	@ 0x10000
    19ac:	f8c2 3144 	str.w	r3, [r2, #324]	@ 0x144
    19b0:	4b15      	ldr	r3, [pc, #84]	@ (1a08 <SystemInit+0x108>)
    19b2:	223c      	movs	r2, #60	@ 0x3c
    19b4:	f8c3 2144 	str.w	r2, [r3, #324]	@ 0x144
    19b8:	4b13      	ldr	r3, [pc, #76]	@ (1a08 <SystemInit+0x108>)
    19ba:	f8d3 3144 	ldr.w	r3, [r3, #324]	@ 0x144
    19be:	4a12      	ldr	r2, [pc, #72]	@ (1a08 <SystemInit+0x108>)
    19c0:	f443 3380 	orr.w	r3, r3, #65536	@ 0x10000
    19c4:	f8c2 3144 	str.w	r3, [r2, #324]	@ 0x144
    19c8:	4b0e      	ldr	r3, [pc, #56]	@ (1a04 <SystemInit+0x104>)
    19ca:	6a9b      	ldr	r3, [r3, #40]	@ 0x28
    19cc:	f023 0303 	bic.w	r3, r3, #3
    19d0:	4a0c      	ldr	r2, [pc, #48]	@ (1a04 <SystemInit+0x104>)
    19d2:	f043 0302 	orr.w	r3, r3, #2
    19d6:	6293      	str	r3, [r2, #40]	@ 0x28
    19d8:	4b0a      	ldr	r3, [pc, #40]	@ (1a04 <SystemInit+0x104>)
    19da:	6adb      	ldr	r3, [r3, #44]	@ 0x2c
    19dc:	f023 0303 	bic.w	r3, r3, #3
    19e0:	4a08      	ldr	r2, [pc, #32]	@ (1a04 <SystemInit+0x104>)
    19e2:	f043 0302 	orr.w	r3, r3, #2
    19e6:	62d3      	str	r3, [r2, #44]	@ 0x2c
    19e8:	4b08      	ldr	r3, [pc, #32]	@ (1a0c <SystemInit+0x10c>)
    19ea:	2200      	movs	r2, #0
    19ec:	609a      	str	r2, [r3, #8]
    19ee:	4b08      	ldr	r3, [pc, #32]	@ (1a10 <SystemInit+0x110>)
    19f0:	2200      	movs	r2, #0
    19f2:	609a      	str	r2, [r3, #8]
    19f4:	f002 fa50 	bl	3e98 <SystemInitHook>
    19f8:	bf00      	nop
    19fa:	bd80      	pop	{r7, pc}
    19fc:	e000ed00 	.word	0xe000ed00
    1a00:	00000000 	.word	0x00000000
    1a04:	40026000 	.word	0x40026000
    1a08:	40045000 	.word	0x40045000
    1a0c:	40024000 	.word	0x40024000
    1a10:	40025000 	.word	0x40025000

00001a14 <HAL_UartInitCommon>:
    1a14:	b580      	push	{r7, lr}
    1a16:	b08e      	sub	sp, #56	@ 0x38
    1a18:	af00      	add	r7, sp, #0
    1a1a:	6078      	str	r0, [r7, #4]
    1a1c:	6039      	str	r1, [r7, #0]
    1a1e:	2300      	movs	r3, #0
    1a20:	86fb      	strh	r3, [r7, #54]	@ 0x36
    1a22:	f107 0308 	add.w	r3, r7, #8
    1a26:	4618      	mov	r0, r3
    1a28:	f7ff fe8c 	bl	1744 <LPUART_GetDefaultConfig>
    1a2c:	683b      	ldr	r3, [r7, #0]
    1a2e:	685b      	ldr	r3, [r3, #4]
    1a30:	60bb      	str	r3, [r7, #8]
    1a32:	683b      	ldr	r3, [r7, #0]
    1a34:	7a1b      	ldrb	r3, [r3, #8]
    1a36:	733b      	strb	r3, [r7, #12]
    1a38:	683b      	ldr	r3, [r7, #0]
    1a3a:	7a5b      	ldrb	r3, [r3, #9]
    1a3c:	73fb      	strb	r3, [r7, #15]
    1a3e:	683b      	ldr	r3, [r7, #0]
    1a40:	7a9b      	ldrb	r3, [r3, #10]
    1a42:	2b00      	cmp	r3, #0
    1a44:	bf14      	ite	ne
    1a46:	2301      	movne	r3, #1
    1a48:	2300      	moveq	r3, #0
    1a4a:	b2db      	uxtb	r3, r3
    1a4c:	f887 302f 	strb.w	r3, [r7, #47]	@ 0x2f
    1a50:	683b      	ldr	r3, [r7, #0]
    1a52:	7adb      	ldrb	r3, [r3, #11]
    1a54:	2b00      	cmp	r3, #0
    1a56:	bf14      	ite	ne
    1a58:	2301      	movne	r3, #1
    1a5a:	2300      	moveq	r3, #0
    1a5c:	b2db      	uxtb	r3, r3
    1a5e:	f887 302e 	strb.w	r3, [r7, #46]	@ 0x2e
    1a62:	683b      	ldr	r3, [r7, #0]
    1a64:	7bdb      	ldrb	r3, [r3, #15]
    1a66:	2b00      	cmp	r3, #0
    1a68:	d008      	beq.n	1a7c <HAL_UartInitCommon+0x68>
    1a6a:	683b      	ldr	r3, [r7, #0]
    1a6c:	7bdb      	ldrb	r3, [r3, #15]
    1a6e:	2b08      	cmp	r3, #8
    1a70:	bf28      	it	cs
    1a72:	2308      	movcs	r3, #8
    1a74:	b2db      	uxtb	r3, r3
    1a76:	3b01      	subs	r3, #1
    1a78:	b2db      	uxtb	r3, r3
    1a7a:	743b      	strb	r3, [r7, #16]
    1a7c:	683b      	ldr	r3, [r7, #0]
    1a7e:	7c1b      	ldrb	r3, [r3, #16]
    1a80:	2b00      	cmp	r3, #0
    1a82:	d008      	beq.n	1a96 <HAL_UartInitCommon+0x82>
    1a84:	683b      	ldr	r3, [r7, #0]
    1a86:	7c1b      	ldrb	r3, [r3, #16]
    1a88:	2b08      	cmp	r3, #8
    1a8a:	bf28      	it	cs
    1a8c:	2308      	movcs	r3, #8
    1a8e:	b2db      	uxtb	r3, r3
    1a90:	3b01      	subs	r3, #1
    1a92:	b2db      	uxtb	r3, r3
    1a94:	747b      	strb	r3, [r7, #17]
    1a96:	683b      	ldr	r3, [r7, #0]
    1a98:	7b1b      	ldrb	r3, [r3, #12]
    1a9a:	2b00      	cmp	r3, #0
    1a9c:	bf14      	ite	ne
    1a9e:	2301      	movne	r3, #1
    1aa0:	2300      	moveq	r3, #0
    1aa2:	b2db      	uxtb	r3, r3
    1aa4:	74bb      	strb	r3, [r7, #18]
    1aa6:	683b      	ldr	r3, [r7, #0]
    1aa8:	7b5b      	ldrb	r3, [r3, #13]
    1aaa:	2b00      	cmp	r3, #0
    1aac:	bf14      	ite	ne
    1aae:	2301      	movne	r3, #1
    1ab0:	2300      	moveq	r3, #0
    1ab2:	b2db      	uxtb	r3, r3
    1ab4:	74fb      	strb	r3, [r7, #19]
    1ab6:	2301      	movs	r3, #1
    1ab8:	75bb      	strb	r3, [r7, #22]
    1aba:	2301      	movs	r3, #1
    1abc:	75fb      	strb	r3, [r7, #23]
    1abe:	683b      	ldr	r3, [r7, #0]
    1ac0:	7b9b      	ldrb	r3, [r3, #14]
    1ac2:	461a      	mov	r2, r3
    1ac4:	4b0b      	ldr	r3, [pc, #44]	@ (1af4 <HAL_UartInitCommon+0xe0>)
    1ac6:	f853 0022 	ldr.w	r0, [r3, r2, lsl #2]
    1aca:	683b      	ldr	r3, [r7, #0]
    1acc:	681a      	ldr	r2, [r3, #0]
    1ace:	f107 0308 	add.w	r3, r7, #8
    1ad2:	4619      	mov	r1, r3
    1ad4:	f7ff fc54 	bl	1380 <LPUART_Init>
    1ad8:	6338      	str	r0, [r7, #48]	@ 0x30
    1ada:	6b3b      	ldr	r3, [r7, #48]	@ 0x30
    1adc:	2b00      	cmp	r3, #0
    1ade:	d004      	beq.n	1aea <HAL_UartInitCommon+0xd6>
    1ae0:	6b38      	ldr	r0, [r7, #48]	@ 0x30
    1ae2:	f002 f9e0 	bl	3ea6 <HAL_UartGetStatus>
    1ae6:	4603      	mov	r3, r0
    1ae8:	86fb      	strh	r3, [r7, #54]	@ 0x36
    1aea:	8efb      	ldrh	r3, [r7, #54]	@ 0x36
    1aec:	4618      	mov	r0, r3
    1aee:	3738      	adds	r7, #56	@ 0x38
    1af0:	46bd      	mov	sp, r7
    1af2:	bd80      	pop	{r7, pc}
    1af4:	00004d68 	.word	0x00004d68

00001af8 <HAL_UartInit>:
    1af8:	b580      	push	{r7, lr}
    1afa:	b084      	sub	sp, #16
    1afc:	af00      	add	r7, sp, #0
    1afe:	6078      	str	r0, [r7, #4]
    1b00:	6039      	str	r1, [r7, #0]
    1b02:	687b      	ldr	r3, [r7, #4]
    1b04:	2b00      	cmp	r3, #0
    1b06:	d102      	bne.n	1b0e <HAL_UartInit+0x16>
    1b08:	4817      	ldr	r0, [pc, #92]	@ (1b68 <HAL_UartInit+0x70>)
    1b0a:	f7fe fc51 	bl	3b0 <__assertion_failed>
    1b0e:	683b      	ldr	r3, [r7, #0]
    1b10:	2b00      	cmp	r3, #0
    1b12:	d102      	bne.n	1b1a <HAL_UartInit+0x22>
    1b14:	4815      	ldr	r0, [pc, #84]	@ (1b6c <HAL_UartInit+0x74>)
    1b16:	f7fe fc4b 	bl	3b0 <__assertion_failed>
    1b1a:	683b      	ldr	r3, [r7, #0]
    1b1c:	7b9b      	ldrb	r3, [r3, #14]
    1b1e:	2b09      	cmp	r3, #9
    1b20:	d902      	bls.n	1b28 <HAL_UartInit+0x30>
    1b22:	4813      	ldr	r0, [pc, #76]	@ (1b70 <HAL_UartInit+0x78>)
    1b24:	f7fe fc44 	bl	3b0 <__assertion_failed>
    1b28:	683b      	ldr	r3, [r7, #0]
    1b2a:	7b9b      	ldrb	r3, [r3, #14]
    1b2c:	461a      	mov	r2, r3
    1b2e:	4b11      	ldr	r3, [pc, #68]	@ (1b74 <HAL_UartInit+0x7c>)
    1b30:	f853 3022 	ldr.w	r3, [r3, r2, lsl #2]
    1b34:	2b00      	cmp	r3, #0
    1b36:	d102      	bne.n	1b3e <HAL_UartInit+0x46>
    1b38:	480f      	ldr	r0, [pc, #60]	@ (1b78 <HAL_UartInit+0x80>)
    1b3a:	f7fe fc39 	bl	3b0 <__assertion_failed>
    1b3e:	6839      	ldr	r1, [r7, #0]
    1b40:	6878      	ldr	r0, [r7, #4]
    1b42:	f7ff ff67 	bl	1a14 <HAL_UartInitCommon>
    1b46:	4603      	mov	r3, r0
    1b48:	81fb      	strh	r3, [r7, #14]
    1b4a:	89fb      	ldrh	r3, [r7, #14]
    1b4c:	2b00      	cmp	r3, #0
    1b4e:	d105      	bne.n	1b5c <HAL_UartInit+0x64>
    1b50:	687b      	ldr	r3, [r7, #4]
    1b52:	60bb      	str	r3, [r7, #8]
    1b54:	683b      	ldr	r3, [r7, #0]
    1b56:	7b9a      	ldrb	r2, [r3, #14]
    1b58:	68bb      	ldr	r3, [r7, #8]
    1b5a:	701a      	strb	r2, [r3, #0]
    1b5c:	89fb      	ldrh	r3, [r7, #14]
    1b5e:	4618      	mov	r0, r3
    1b60:	3710      	adds	r7, #16
    1b62:	46bd      	mov	sp, r7
    1b64:	bd80      	pop	{r7, pc}
    1b66:	bf00      	nop
    1b68:	00004d90 	.word	0x00004d90
    1b6c:	00004dbc 	.word	0x00004dbc
    1b70:	00004dec 	.word	0x00004dec
    1b74:	00004d68 	.word	0x00004d68
    1b78:	00004e58 	.word	0x00004e58

00001b7c <HAL_UartSendBlocking>:
    1b7c:	b580      	push	{r7, lr}
    1b7e:	b086      	sub	sp, #24
    1b80:	af00      	add	r7, sp, #0
    1b82:	60f8      	str	r0, [r7, #12]
    1b84:	60b9      	str	r1, [r7, #8]
    1b86:	607a      	str	r2, [r7, #4]
    1b88:	68fb      	ldr	r3, [r7, #12]
    1b8a:	2b00      	cmp	r3, #0
    1b8c:	d102      	bne.n	1b94 <HAL_UartSendBlocking+0x18>
    1b8e:	4810      	ldr	r0, [pc, #64]	@ (1bd0 <HAL_UartSendBlocking+0x54>)
    1b90:	f7fe fc0e 	bl	3b0 <__assertion_failed>
    1b94:	68bb      	ldr	r3, [r7, #8]
    1b96:	2b00      	cmp	r3, #0
    1b98:	d102      	bne.n	1ba0 <HAL_UartSendBlocking+0x24>
    1b9a:	480e      	ldr	r0, [pc, #56]	@ (1bd4 <HAL_UartSendBlocking+0x58>)
    1b9c:	f7fe fc08 	bl	3b0 <__assertion_failed>
    1ba0:	687b      	ldr	r3, [r7, #4]
    1ba2:	2b00      	cmp	r3, #0
    1ba4:	d102      	bne.n	1bac <HAL_UartSendBlocking+0x30>
    1ba6:	480c      	ldr	r0, [pc, #48]	@ (1bd8 <HAL_UartSendBlocking+0x5c>)
    1ba8:	f7fe fc02 	bl	3b0 <__assertion_failed>
    1bac:	68fb      	ldr	r3, [r7, #12]
    1bae:	617b      	str	r3, [r7, #20]
    1bb0:	697b      	ldr	r3, [r7, #20]
    1bb2:	781b      	ldrb	r3, [r3, #0]
    1bb4:	461a      	mov	r2, r3
    1bb6:	4b09      	ldr	r3, [pc, #36]	@ (1bdc <HAL_UartSendBlocking+0x60>)
    1bb8:	f853 3022 	ldr.w	r3, [r3, r2, lsl #2]
    1bbc:	687a      	ldr	r2, [r7, #4]
    1bbe:	68b9      	ldr	r1, [r7, #8]
    1bc0:	4618      	mov	r0, r3
    1bc2:	f7ff fe05 	bl	17d0 <LPUART_WriteBlocking>
    1bc6:	2300      	movs	r3, #0
    1bc8:	4618      	mov	r0, r3
    1bca:	3718      	adds	r7, #24
    1bcc:	46bd      	mov	sp, r7
    1bce:	bd80      	pop	{r7, pc}
    1bd0:	00004ea8 	.word	0x00004ea8
    1bd4:	00004ed4 	.word	0x00004ed4
    1bd8:	00004efc 	.word	0x00004efc
    1bdc:	00004d68 	.word	0x00004d68

00001be0 <BOARD_InitDebugConsole>:
    1be0:	b580      	push	{r7, lr}
    1be2:	b082      	sub	sp, #8
    1be4:	af00      	add	r7, sp, #0
    1be6:	f243 0018 	movw	r0, #12312	@ 0x3018
    1bea:	f7ff f891 	bl	d10 <CLOCK_AttachClk>
    1bee:	4808      	ldr	r0, [pc, #32]	@ (1c10 <BOARD_InitDebugConsole+0x30>)
    1bf0:	f7ff fe54 	bl	189c <RESET_ClearPeripheralReset>
    1bf4:	4b07      	ldr	r3, [pc, #28]	@ (1c14 <BOARD_InitDebugConsole+0x34>)
    1bf6:	607b      	str	r3, [r7, #4]
    1bf8:	687b      	ldr	r3, [r7, #4]
    1bfa:	2201      	movs	r2, #1
    1bfc:	f44f 31e1 	mov.w	r1, #115200	@ 0x1c200
    1c00:	2004      	movs	r0, #4
    1c02:	f7fe fc0b 	bl	41c <DbgConsole_Init>
    1c06:	bf00      	nop
    1c08:	3708      	adds	r7, #8
    1c0a:	46bd      	mov	sp, r7
    1c0c:	bd80      	pop	{r7, pc}
    1c0e:	bf00      	nop
    1c10:	0001000f 	.word	0x0001000f
    1c14:	00b71b00 	.word	0x00b71b00

00001c18 <BOARD_BootClockPLL150M>:
    1c18:	b580      	push	{r7, lr}
    1c1a:	b088      	sub	sp, #32
    1c1c:	af00      	add	r7, sp, #0
    1c1e:	f240 201a 	movw	r0, #538	@ 0x21a
    1c22:	f002 fa86 	bl	4132 <CLOCK_EnableClock>
    1c26:	f243 30fe 	movw	r0, #13310	@ 0x33fe
    1c2a:	f7ff f871 	bl	d10 <CLOCK_AttachClk>
    1c2e:	2102      	movs	r1, #2
    1c30:	4817      	ldr	r0, [pc, #92]	@ (1c90 <BOARD_BootClockPLL150M+0x78>)
    1c32:	f7fe fff7 	bl	c24 <CLOCK_SetFLASHAccessCyclesForFreq>
    1c36:	4817      	ldr	r0, [pc, #92]	@ (1c94 <BOARD_BootClockPLL150M+0x7c>)
    1c38:	f7fe ff8a 	bl	b50 <CLOCK_SetupFROHFClocking>
    1c3c:	1d3b      	adds	r3, r7, #4
    1c3e:	2200      	movs	r2, #0
    1c40:	601a      	str	r2, [r3, #0]
    1c42:	605a      	str	r2, [r3, #4]
    1c44:	609a      	str	r2, [r3, #8]
    1c46:	60da      	str	r2, [r3, #12]
    1c48:	611a      	str	r2, [r3, #16]
    1c4a:	615a      	str	r2, [r3, #20]
    1c4c:	619a      	str	r2, [r3, #24]
    1c4e:	4b12      	ldr	r3, [pc, #72]	@ (1c98 <BOARD_BootClockPLL150M+0x80>)
    1c50:	607b      	str	r3, [r7, #4]
    1c52:	2308      	movs	r3, #8
    1c54:	60bb      	str	r3, [r7, #8]
    1c56:	2301      	movs	r3, #1
    1c58:	60fb      	str	r3, [r7, #12]
    1c5a:	2332      	movs	r3, #50	@ 0x32
    1c5c:	613b      	str	r3, [r7, #16]
    1c5e:	4b0c      	ldr	r3, [pc, #48]	@ (1c90 <BOARD_BootClockPLL150M+0x78>)
    1c60:	61fb      	str	r3, [r7, #28]
    1c62:	1d3b      	adds	r3, r7, #4
    1c64:	4618      	mov	r0, r3
    1c66:	f7ff f901 	bl	e6c <CLOCK_SetPLL0Freq>
    1c6a:	2000      	movs	r0, #0
    1c6c:	f7fe ffbe 	bl	bec <CLOCK_SetPll0MonitorMode>
    1c70:	f246 30fe 	movw	r0, #25598	@ 0x63fe
    1c74:	f7ff f84c 	bl	d10 <CLOCK_AttachClk>
    1c78:	2101      	movs	r1, #1
    1c7a:	2020      	movs	r0, #32
    1c7c:	f7ff f8a0 	bl	dc0 <CLOCK_SetClkDiv>
    1c80:	4b06      	ldr	r3, [pc, #24]	@ (1c9c <BOARD_BootClockPLL150M+0x84>)
    1c82:	4a03      	ldr	r2, [pc, #12]	@ (1c90 <BOARD_BootClockPLL150M+0x78>)
    1c84:	601a      	str	r2, [r3, #0]
    1c86:	bf00      	nop
    1c88:	3720      	adds	r7, #32
    1c8a:	46bd      	mov	sp, r7
    1c8c:	bd80      	pop	{r7, pc}
    1c8e:	bf00      	nop
    1c90:	08f0d180 	.word	0x08f0d180
    1c94:	02dc6c00 	.word	0x02dc6c00
    1c98:	020035b0 	.word	0x020035b0
    1c9c:	20000008 	.word	0x20000008

00001ca0 <PORT_SetPinConfig>:
    1ca0:	b580      	push	{r7, lr}
    1ca2:	b086      	sub	sp, #24
    1ca4:	af00      	add	r7, sp, #0
    1ca6:	60f8      	str	r0, [r7, #12]
    1ca8:	60b9      	str	r1, [r7, #8]
    1caa:	607a      	str	r2, [r7, #4]
    1cac:	687b      	ldr	r3, [r7, #4]
    1cae:	2b00      	cmp	r3, #0
    1cb0:	d102      	bne.n	1cb8 <PORT_SetPinConfig+0x18>
    1cb2:	4808      	ldr	r0, [pc, #32]	@ (1cd4 <PORT_SetPinConfig+0x34>)
    1cb4:	f7fe fb7c 	bl	3b0 <__assertion_failed>
    1cb8:	68bb      	ldr	r3, [r7, #8]
    1cba:	3320      	adds	r3, #32
    1cbc:	009b      	lsls	r3, r3, #2
    1cbe:	68fa      	ldr	r2, [r7, #12]
    1cc0:	4413      	add	r3, r2
    1cc2:	617b      	str	r3, [r7, #20]
    1cc4:	697b      	ldr	r3, [r7, #20]
    1cc6:	687a      	ldr	r2, [r7, #4]
    1cc8:	8812      	ldrh	r2, [r2, #0]
    1cca:	801a      	strh	r2, [r3, #0]
    1ccc:	bf00      	nop
    1cce:	3718      	adds	r7, #24
    1cd0:	46bd      	mov	sp, r7
    1cd2:	bd80      	pop	{r7, pc}
    1cd4:	00004f24 	.word	0x00004f24

00001cd8 <BOARD_InitDEBUG_UARTPins>:
    1cd8:	b580      	push	{r7, lr}
    1cda:	b082      	sub	sp, #8
    1cdc:	af00      	add	r7, sp, #0
    1cde:	200e      	movs	r0, #14
    1ce0:	f002 fa7e 	bl	41e0 <CLOCK_EnableClock>
    1ce4:	2300      	movs	r3, #0
    1ce6:	80bb      	strh	r3, [r7, #4]
    1ce8:	797b      	ldrb	r3, [r7, #5]
    1cea:	2202      	movs	r2, #2
    1cec:	f362 0303 	bfi	r3, r2, #0, #4
    1cf0:	717b      	strb	r3, [r7, #5]
    1cf2:	797b      	ldrb	r3, [r7, #5]
    1cf4:	f043 0310 	orr.w	r3, r3, #16
    1cf8:	717b      	strb	r3, [r7, #5]
    1cfa:	1d3b      	adds	r3, r7, #4
    1cfc:	461a      	mov	r2, r3
    1cfe:	2108      	movs	r1, #8
    1d00:	480b      	ldr	r0, [pc, #44]	@ (1d30 <BOARD_InitDEBUG_UARTPins+0x58>)
    1d02:	f7ff ffcd 	bl	1ca0 <PORT_SetPinConfig>
    1d06:	2300      	movs	r3, #0
    1d08:	803b      	strh	r3, [r7, #0]
    1d0a:	787b      	ldrb	r3, [r7, #1]
    1d0c:	2202      	movs	r2, #2
    1d0e:	f362 0303 	bfi	r3, r2, #0, #4
    1d12:	707b      	strb	r3, [r7, #1]
    1d14:	787b      	ldrb	r3, [r7, #1]
    1d16:	f043 0310 	orr.w	r3, r3, #16
    1d1a:	707b      	strb	r3, [r7, #1]
    1d1c:	463b      	mov	r3, r7
    1d1e:	461a      	mov	r2, r3
    1d20:	2109      	movs	r1, #9
    1d22:	4803      	ldr	r0, [pc, #12]	@ (1d30 <BOARD_InitDEBUG_UARTPins+0x58>)
    1d24:	f7ff ffbc 	bl	1ca0 <PORT_SetPinConfig>
    1d28:	bf00      	nop
    1d2a:	3708      	adds	r7, #8
    1d2c:	46bd      	mov	sp, r7
    1d2e:	bd80      	pop	{r7, pc}
    1d30:	40117000 	.word	0x40117000

00001d34 <malloc>:
    1d34:	b5f8      	push	{r3, r4, r5, r6, r7, lr}
    1d36:	4f38      	ldr	r7, [pc, #224]	@ (1e18 <malloc+0xe4>)
    1d38:	683c      	ldr	r4, [r7, #0]
    1d3a:	2800      	cmp	r0, #0
    1d3c:	d165      	bne.n	1e0a <malloc+0xd6>
    1d3e:	2000      	movs	r0, #0
    1d40:	bdf8      	pop	{r3, r4, r5, r6, r7, pc}
    1d42:	6823      	ldr	r3, [r4, #0]
    1d44:	f1b3 5f80 	cmp.w	r3, #268435456	@ 0x10000000
    1d48:	d12e      	bne.n	1da8 <malloc+0x74>
    1d4a:	e9d4 3501 	ldrd	r3, r5, [r4, #4]
    1d4e:	b155      	cbz	r5, 1d66 <malloc+0x32>
    1d50:	6829      	ldr	r1, [r5, #0]
    1d52:	f1b1 5f80 	cmp.w	r1, #268435456	@ 0x10000000
    1d56:	d11e      	bne.n	1d96 <malloc+0x62>
    1d58:	6869      	ldr	r1, [r5, #4]
    1d5a:	3303      	adds	r3, #3
    1d5c:	4419      	add	r1, r3
    1d5e:	68ab      	ldr	r3, [r5, #8]
    1d60:	6061      	str	r1, [r4, #4]
    1d62:	60a3      	str	r3, [r4, #8]
    1d64:	e7f1      	b.n	1d4a <malloc+0x16>
    1d66:	42b3      	cmp	r3, r6
    1d68:	da30      	bge.n	1dcc <malloc+0x98>
    1d6a:	f106 010a 	add.w	r1, r6, #10
    1d6e:	4299      	cmp	r1, r3
    1d70:	d233      	bcs.n	1dda <malloc+0xa6>
    1d72:	4620      	mov	r0, r4
    1d74:	f04f 5100 	mov.w	r1, #536870912	@ 0x20000000
    1d78:	6066      	str	r6, [r4, #4]
    1d7a:	f840 1b0c 	str.w	r1, [r0], #12
    1d7e:	f022 0103 	bic.w	r1, r2, #3
    1d82:	1842      	adds	r2, r0, r1
    1d84:	60a2      	str	r2, [r4, #8]
    1d86:	f04f 5480 	mov.w	r4, #268435456	@ 0x10000000
    1d8a:	1b9b      	subs	r3, r3, r6
    1d8c:	3b03      	subs	r3, #3
    1d8e:	5044      	str	r4, [r0, r1]
    1d90:	e9c2 3501 	strd	r3, r5, [r2, #4]
    1d94:	e7d4      	b.n	1d40 <malloc+0xc>
    1d96:	42b3      	cmp	r3, r6
    1d98:	db32      	blt.n	1e00 <malloc+0xcc>
    1d9a:	1cf1      	adds	r1, r6, #3
    1d9c:	428b      	cmp	r3, r1
    1d9e:	dd29      	ble.n	1df4 <malloc+0xc0>
    1da0:	f106 010a 	add.w	r1, r6, #10
    1da4:	428b      	cmp	r3, r1
    1da6:	d8e4      	bhi.n	1d72 <malloc+0x3e>
    1da8:	4625      	mov	r5, r4
    1daa:	68a4      	ldr	r4, [r4, #8]
    1dac:	2c00      	cmp	r4, #0
    1dae:	d1c8      	bne.n	1d42 <malloc+0xe>
    1db0:	300c      	adds	r0, #12
    1db2:	f000 fe99 	bl	2ae8 <_sbrk>
    1db6:	1c43      	adds	r3, r0, #1
    1db8:	d0c1      	beq.n	1d3e <malloc+0xa>
    1dba:	f04f 5300 	mov.w	r3, #536870912	@ 0x20000000
    1dbe:	6084      	str	r4, [r0, #8]
    1dc0:	e9c0 3600 	strd	r3, r6, [r0]
    1dc4:	bb2d      	cbnz	r5, 1e12 <malloc+0xde>
    1dc6:	6038      	str	r0, [r7, #0]
    1dc8:	300c      	adds	r0, #12
    1dca:	e7b9      	b.n	1d40 <malloc+0xc>
    1dcc:	1cf1      	adds	r1, r6, #3
    1dce:	4299      	cmp	r1, r3
    1dd0:	da10      	bge.n	1df4 <malloc+0xc0>
    1dd2:	f106 010a 	add.w	r1, r6, #10
    1dd6:	428b      	cmp	r3, r1
    1dd8:	d8cb      	bhi.n	1d72 <malloc+0x3e>
    1dda:	eba0 0083 	sub.w	r0, r0, r3, lsl #2
    1dde:	f000 fe83 	bl	2ae8 <_sbrk>
    1de2:	3001      	adds	r0, #1
    1de4:	d0ab      	beq.n	1d3e <malloc+0xa>
    1de6:	f04f 5300 	mov.w	r3, #536870912	@ 0x20000000
    1dea:	f104 000c 	add.w	r0, r4, #12
    1dee:	e9c4 3600 	strd	r3, r6, [r4]
    1df2:	e7a5      	b.n	1d40 <malloc+0xc>
    1df4:	4620      	mov	r0, r4
    1df6:	f04f 5300 	mov.w	r3, #536870912	@ 0x20000000
    1dfa:	f840 3b0c 	str.w	r3, [r0], #12
    1dfe:	e79f      	b.n	1d40 <malloc+0xc>
    1e00:	f106 010a 	add.w	r1, r6, #10
    1e04:	4299      	cmp	r1, r3
    1e06:	d2cf      	bcs.n	1da8 <malloc+0x74>
    1e08:	e7b3      	b.n	1d72 <malloc+0x3e>
    1e0a:	1cc2      	adds	r2, r0, #3
    1e0c:	2500      	movs	r5, #0
    1e0e:	0896      	lsrs	r6, r2, #2
    1e10:	e7cc      	b.n	1dac <malloc+0x78>
    1e12:	60a8      	str	r0, [r5, #8]
    1e14:	e7d8      	b.n	1dc8 <malloc+0x94>
    1e16:	bf00      	nop
    1e18:	20000294 	.word	0x20000294

00001e1c <_Csys_alloc>:
    1e1c:	b510      	push	{r4, lr}
    1e1e:	f7ff ff89 	bl	1d34 <malloc>
    1e22:	4604      	mov	r4, r0
    1e24:	b928      	cbnz	r0, 1e32 <_Csys_alloc+0x16>
    1e26:	2217      	movs	r2, #23
    1e28:	4903      	ldr	r1, [pc, #12]	@ (1e38 <_Csys_alloc+0x1c>)
    1e2a:	f002 fc8e 	bl	474a <__sys_write>
    1e2e:	f002 fc79 	bl	4724 <__sys_appexit>
    1e32:	4620      	mov	r0, r4
    1e34:	bd10      	pop	{r4, pc}
    1e36:	bf00      	nop
    1e38:	00004fa0 	.word	0x00004fa0

00001e3c <_initio>:
    1e3c:	b510      	push	{r4, lr}
    1e3e:	4a17      	ldr	r2, [pc, #92]	@ (1e9c <_initio+0x60>)
    1e40:	4917      	ldr	r1, [pc, #92]	@ (1ea0 <_initio+0x64>)
    1e42:	2000      	movs	r0, #0
    1e44:	f002 fb69 	bl	451a <_fdopen>
    1e48:	f44f 7380 	mov.w	r3, #256	@ 0x100
    1e4c:	f44f 6280 	mov.w	r2, #1024	@ 0x400
    1e50:	2100      	movs	r1, #0
    1e52:	4812      	ldr	r0, [pc, #72]	@ (1e9c <_initio+0x60>)
    1e54:	f002 fa39 	bl	42ca <setvbuf>
    1e58:	4a12      	ldr	r2, [pc, #72]	@ (1ea4 <_initio+0x68>)
    1e5a:	4913      	ldr	r1, [pc, #76]	@ (1ea8 <_initio+0x6c>)
    1e5c:	2001      	movs	r0, #1
    1e5e:	f002 fb5c 	bl	451a <_fdopen>
    1e62:	f44f 7380 	mov.w	r3, #256	@ 0x100
    1e66:	f44f 6280 	mov.w	r2, #1024	@ 0x400
    1e6a:	2100      	movs	r1, #0
    1e6c:	480d      	ldr	r0, [pc, #52]	@ (1ea4 <_initio+0x68>)
    1e6e:	f002 fa2c 	bl	42ca <setvbuf>
    1e72:	4b0e      	ldr	r3, [pc, #56]	@ (1eac <_initio+0x70>)
    1e74:	681b      	ldr	r3, [r3, #0]
    1e76:	2b02      	cmp	r3, #2
    1e78:	dd0e      	ble.n	1e98 <_initio+0x5c>
    1e7a:	4a0d      	ldr	r2, [pc, #52]	@ (1eb0 <_initio+0x74>)
    1e7c:	490a      	ldr	r1, [pc, #40]	@ (1ea8 <_initio+0x6c>)
    1e7e:	2002      	movs	r0, #2
    1e80:	f002 fb4b 	bl	451a <_fdopen>
    1e84:	e8bd 4010 	ldmia.w	sp!, {r4, lr}
    1e88:	f44f 7380 	mov.w	r3, #256	@ 0x100
    1e8c:	f44f 6280 	mov.w	r2, #1024	@ 0x400
    1e90:	2100      	movs	r1, #0
    1e92:	4807      	ldr	r0, [pc, #28]	@ (1eb0 <_initio+0x74>)
    1e94:	f002 ba19 	b.w	42ca <setvbuf>
    1e98:	bd10      	pop	{r4, pc}
    1e9a:	bf00      	nop
    1e9c:	20000298 	.word	0x20000298
    1ea0:	00004fb8 	.word	0x00004fb8
    1ea4:	200002d4 	.word	0x200002d4
    1ea8:	00004fba 	.word	0x00004fba
    1eac:	00004f9c 	.word	0x00004f9c
    1eb0:	20000310 	.word	0x20000310

00001eb4 <__vfprintf>:
    1eb4:	e92d 4ff0 	stmdb	sp!, {r4, r5, r6, r7, r8, r9, sl, fp, lr}
    1eb8:	4606      	mov	r6, r0
    1eba:	f04f 0800 	mov.w	r8, #0
    1ebe:	b09d      	sub	sp, #116	@ 0x74
    1ec0:	e9cd 2308 	strd	r2, r3, [sp, #32]
    1ec4:	9c27      	ldr	r4, [sp, #156]	@ 0x9c
    1ec6:	f8dd a098 	ldr.w	sl, [sp, #152]	@ 0x98
    1eca:	f81a 0b01 	ldrb.w	r0, [sl], #1
    1ece:	b918      	cbnz	r0, 1ed8 <__vfprintf+0x24>
    1ed0:	4640      	mov	r0, r8
    1ed2:	b01d      	add	sp, #116	@ 0x74
    1ed4:	e8bd 8ff0 	ldmia.w	sp!, {r4, r5, r6, r7, r8, r9, sl, fp, pc}
    1ed8:	2825      	cmp	r0, #37	@ 0x25
    1eda:	d019      	beq.n	1f10 <__vfprintf+0x5c>
    1edc:	9a08      	ldr	r2, [sp, #32]
    1ede:	ea4f 73e8 	mov.w	r3, r8, asr #31
    1ee2:	4590      	cmp	r8, r2
    1ee4:	9a09      	ldr	r2, [sp, #36]	@ 0x24
    1ee6:	4193      	sbcs	r3, r2
    1ee8:	db04      	blt.n	1ef4 <__vfprintf+0x40>
    1eea:	f108 0801 	add.w	r8, r8, #1
    1eee:	f8cd a098 	str.w	sl, [sp, #152]	@ 0x98
    1ef2:	e7e8      	b.n	1ec6 <__vfprintf+0x12>
    1ef4:	68b3      	ldr	r3, [r6, #8]
    1ef6:	3b01      	subs	r3, #1
    1ef8:	2b00      	cmp	r3, #0
    1efa:	60b3      	str	r3, [r6, #8]
    1efc:	db04      	blt.n	1f08 <__vfprintf+0x54>
    1efe:	6833      	ldr	r3, [r6, #0]
    1f00:	1c5a      	adds	r2, r3, #1
    1f02:	6032      	str	r2, [r6, #0]
    1f04:	7018      	strb	r0, [r3, #0]
    1f06:	e7f0      	b.n	1eea <__vfprintf+0x36>
    1f08:	4631      	mov	r1, r6
    1f0a:	f002 fa66 	bl	43da <__flsbuf>
    1f0e:	e7ec      	b.n	1eea <__vfprintf+0x36>
    1f10:	2500      	movs	r5, #0
    1f12:	e016      	b.n	1f42 <__vfprintf+0x8e>
    1f14:	2f2d      	cmp	r7, #45	@ 0x2d
    1f16:	d010      	beq.n	1f3a <__vfprintf+0x86>
    1f18:	2f30      	cmp	r7, #48	@ 0x30
    1f1a:	d04a      	beq.n	1fb2 <__vfprintf+0xfe>
    1f1c:	f04f 0900 	mov.w	r9, #0
    1f20:	220a      	movs	r2, #10
    1f22:	f1a7 0330 	sub.w	r3, r7, #48	@ 0x30
    1f26:	b2d9      	uxtb	r1, r3
    1f28:	2909      	cmp	r1, #9
    1f2a:	d825      	bhi.n	1f78 <__vfprintf+0xc4>
    1f2c:	fb02 3909 	mla	r9, r2, r9, r3
    1f30:	9b04      	ldr	r3, [sp, #16]
    1f32:	f813 7b01 	ldrb.w	r7, [r3], #1
    1f36:	9304      	str	r3, [sp, #16]
    1f38:	e7f3      	b.n	1f22 <__vfprintf+0x6e>
    1f3a:	f045 0501 	orr.w	r5, r5, #1
    1f3e:	f8dd a010 	ldr.w	sl, [sp, #16]
    1f42:	4653      	mov	r3, sl
    1f44:	f813 7b01 	ldrb.w	r7, [r3], #1
    1f48:	2f2b      	cmp	r7, #43	@ 0x2b
    1f4a:	9304      	str	r3, [sp, #16]
    1f4c:	d028      	beq.n	1fa0 <__vfprintf+0xec>
    1f4e:	d8e1      	bhi.n	1f14 <__vfprintf+0x60>
    1f50:	2f20      	cmp	r7, #32
    1f52:	d028      	beq.n	1fa6 <__vfprintf+0xf2>
    1f54:	2f23      	cmp	r7, #35	@ 0x23
    1f56:	d029      	beq.n	1fac <__vfprintf+0xf8>
    1f58:	2f2a      	cmp	r7, #42	@ 0x2a
    1f5a:	d1df      	bne.n	1f1c <__vfprintf+0x68>
    1f5c:	9b04      	ldr	r3, [sp, #16]
    1f5e:	f854 9b04 	ldr.w	r9, [r4], #4
    1f62:	781f      	ldrb	r7, [r3, #0]
    1f64:	f1b9 0f00 	cmp.w	r9, #0
    1f68:	f10a 0302 	add.w	r3, sl, #2
    1f6c:	bfbc      	itt	lt
    1f6e:	f1c9 0900 	rsblt	r9, r9, #0
    1f72:	f085 0501 	eorlt.w	r5, r5, #1
    1f76:	9304      	str	r3, [sp, #16]
    1f78:	2f2e      	cmp	r7, #46	@ 0x2e
    1f7a:	d128      	bne.n	1fce <__vfprintf+0x11a>
    1f7c:	9b04      	ldr	r3, [sp, #16]
    1f7e:	781f      	ldrb	r7, [r3, #0]
    1f80:	2f2a      	cmp	r7, #42	@ 0x2a
    1f82:	d019      	beq.n	1fb8 <__vfprintf+0x104>
    1f84:	f04f 0b00 	mov.w	fp, #0
    1f88:	210a      	movs	r1, #10
    1f8a:	3301      	adds	r3, #1
    1f8c:	f1a7 0230 	sub.w	r2, r7, #48	@ 0x30
    1f90:	b2d0      	uxtb	r0, r2
    1f92:	2809      	cmp	r0, #9
    1f94:	d81e      	bhi.n	1fd4 <__vfprintf+0x120>
    1f96:	fb01 2b0b 	mla	fp, r1, fp, r2
    1f9a:	f813 7b01 	ldrb.w	r7, [r3], #1
    1f9e:	e7f5      	b.n	1f8c <__vfprintf+0xd8>
    1fa0:	f045 0502 	orr.w	r5, r5, #2
    1fa4:	e7cb      	b.n	1f3e <__vfprintf+0x8a>
    1fa6:	f045 0504 	orr.w	r5, r5, #4
    1faa:	e7c8      	b.n	1f3e <__vfprintf+0x8a>
    1fac:	f045 0508 	orr.w	r5, r5, #8
    1fb0:	e7c5      	b.n	1f3e <__vfprintf+0x8a>
    1fb2:	f445 7500 	orr.w	r5, r5, #512	@ 0x200
    1fb6:	e7c2      	b.n	1f3e <__vfprintf+0x8a>
    1fb8:	f854 bb04 	ldr.w	fp, [r4], #4
    1fbc:	9b04      	ldr	r3, [sp, #16]
    1fbe:	9a04      	ldr	r2, [sp, #16]
    1fc0:	f1bb 0f00 	cmp.w	fp, #0
    1fc4:	7857      	ldrb	r7, [r2, #1]
    1fc6:	f103 0302 	add.w	r3, r3, #2
    1fca:	da03      	bge.n	1fd4 <__vfprintf+0x120>
    1fcc:	9304      	str	r3, [sp, #16]
    1fce:	f04f 0b00 	mov.w	fp, #0
    1fd2:	e002      	b.n	1fda <__vfprintf+0x126>
    1fd4:	f045 0510 	orr.w	r5, r5, #16
    1fd8:	9304      	str	r3, [sp, #16]
    1fda:	2f6c      	cmp	r7, #108	@ 0x6c
    1fdc:	d10e      	bne.n	1ffc <__vfprintf+0x148>
    1fde:	9b04      	ldr	r3, [sp, #16]
    1fe0:	781f      	ldrb	r7, [r3, #0]
    1fe2:	2f6c      	cmp	r7, #108	@ 0x6c
    1fe4:	bf15      	itete	ne
    1fe6:	9b04      	ldrne	r3, [sp, #16]
    1fe8:	785f      	ldrbeq	r7, [r3, #1]
    1fea:	3301      	addne	r3, #1
    1fec:	3302      	addeq	r3, #2
    1fee:	bf07      	ittee	eq
    1ff0:	f045 0560 	orreq.w	r5, r5, #96	@ 0x60
    1ff4:	9304      	streq	r3, [sp, #16]
    1ff6:	9304      	strne	r3, [sp, #16]
    1ff8:	f045 0520 	orrne.w	r5, r5, #32
    1ffc:	2f4c      	cmp	r7, #76	@ 0x4c
    1ffe:	d03f      	beq.n	2080 <__vfprintf+0x1cc>
    2000:	2f71      	cmp	r7, #113	@ 0x71
    2002:	d03d      	beq.n	2080 <__vfprintf+0x1cc>
    2004:	dc0f      	bgt.n	2026 <__vfprintf+0x172>
    2006:	2f68      	cmp	r7, #104	@ 0x68
    2008:	d041      	beq.n	208e <__vfprintf+0x1da>
    200a:	2f6a      	cmp	r7, #106	@ 0x6a
    200c:	d06d      	beq.n	20ea <__vfprintf+0x236>
    200e:	2f57      	cmp	r7, #87	@ 0x57
    2010:	dc0f      	bgt.n	2032 <__vfprintf+0x17e>
    2012:	2f41      	cmp	r7, #65	@ 0x41
    2014:	f000 82ae 	beq.w	2574 <__vfprintf+0x6c0>
    2018:	dc6d      	bgt.n	20f6 <__vfprintf+0x242>
    201a:	2f00      	cmp	r7, #0
    201c:	d147      	bne.n	20ae <__vfprintf+0x1fa>
    201e:	9b04      	ldr	r3, [sp, #16]
    2020:	3b01      	subs	r3, #1
    2022:	9304      	str	r3, [sp, #16]
    2024:	e0ba      	b.n	219c <__vfprintf+0x2e8>
    2026:	2f74      	cmp	r7, #116	@ 0x74
    2028:	d061      	beq.n	20ee <__vfprintf+0x23a>
    202a:	2f7a      	cmp	r7, #122	@ 0x7a
    202c:	d05f      	beq.n	20ee <__vfprintf+0x23a>
    202e:	2f78      	cmp	r7, #120	@ 0x78
    2030:	dc3d      	bgt.n	20ae <__vfprintf+0x1fa>
    2032:	f1a7 0358 	sub.w	r3, r7, #88	@ 0x58
    2036:	2b20      	cmp	r3, #32
    2038:	d839      	bhi.n	20ae <__vfprintf+0x1fa>
    203a:	e8df f013 	tbh	[pc, r3, lsl #1]
    203e:	019d      	.short	0x019d
    2040:	00380038 	.word	0x00380038
    2044:	00380038 	.word	0x00380038
    2048:	00380038 	.word	0x00380038
    204c:	00380038 	.word	0x00380038
    2050:	0038029b 	.word	0x0038029b
    2054:	026b0073 	.word	0x026b0073
    2058:	00600060 	.word	0x00600060
    205c:	00380060 	.word	0x00380060
    2060:	0038026b 	.word	0x0038026b
    2064:	00380038 	.word	0x00380038
    2068:	00eb0038 	.word	0x00eb0038
    206c:	01e7021c 	.word	0x01e7021c
    2070:	00380038 	.word	0x00380038
    2074:	00380105 	.word	0x00380105
    2078:	0038023c 	.word	0x0038023c
    207c:	01c20038 	.word	0x01c20038
    2080:	9b04      	ldr	r3, [sp, #16]
    2082:	f045 0560 	orr.w	r5, r5, #96	@ 0x60
    2086:	f813 7b01 	ldrb.w	r7, [r3], #1
    208a:	9304      	str	r3, [sp, #16]
    208c:	e00d      	b.n	20aa <__vfprintf+0x1f6>
    208e:	9b04      	ldr	r3, [sp, #16]
    2090:	781f      	ldrb	r7, [r3, #0]
    2092:	2f68      	cmp	r7, #104	@ 0x68
    2094:	d104      	bne.n	20a0 <__vfprintf+0x1ec>
    2096:	785f      	ldrb	r7, [r3, #1]
    2098:	f445 7580 	orr.w	r5, r5, #256	@ 0x100
    209c:	3302      	adds	r3, #2
    209e:	e7f4      	b.n	208a <__vfprintf+0x1d6>
    20a0:	9b04      	ldr	r3, [sp, #16]
    20a2:	f045 0580 	orr.w	r5, r5, #128	@ 0x80
    20a6:	3301      	adds	r3, #1
    20a8:	9304      	str	r3, [sp, #16]
    20aa:	2f78      	cmp	r7, #120	@ 0x78
    20ac:	ddaf      	ble.n	200e <__vfprintf+0x15a>
    20ae:	f015 0301 	ands.w	r3, r5, #1
    20b2:	9305      	str	r3, [sp, #20]
    20b4:	f109 3aff 	add.w	sl, r9, #4294967295
    20b8:	ea4f 73e8 	mov.w	r3, r8, asr #31
    20bc:	d035      	beq.n	212a <__vfprintf+0x276>
    20be:	9908      	ldr	r1, [sp, #32]
    20c0:	f108 0201 	add.w	r2, r8, #1
    20c4:	4588      	cmp	r8, r1
    20c6:	9909      	ldr	r1, [sp, #36]	@ 0x24
    20c8:	4690      	mov	r8, r2
    20ca:	418b      	sbcs	r3, r1
    20cc:	db5a      	blt.n	2184 <__vfprintf+0x2d0>
    20ce:	4645      	mov	r5, r8
    20d0:	4657      	mov	r7, sl
    20d2:	f04f 0b20 	mov.w	fp, #32
    20d6:	ea4f 79e8 	mov.w	r9, r8, asr #31
    20da:	3f01      	subs	r7, #1
    20dc:	f140 8081 	bpl.w	21e2 <__vfprintf+0x32e>
    20e0:	f1ba 0f00 	cmp.w	sl, #0
    20e4:	bfa8      	it	ge
    20e6:	44d0      	addge	r8, sl
    20e8:	e058      	b.n	219c <__vfprintf+0x2e8>
    20ea:	f045 0540 	orr.w	r5, r5, #64	@ 0x40
    20ee:	9b04      	ldr	r3, [sp, #16]
    20f0:	f813 7b01 	ldrb.w	r7, [r3], #1
    20f4:	e7c9      	b.n	208a <__vfprintf+0x1d6>
    20f6:	f027 0302 	bic.w	r3, r7, #2
    20fa:	2b45      	cmp	r3, #69	@ 0x45
    20fc:	d1d7      	bne.n	20ae <__vfprintf+0x1fa>
    20fe:	3407      	adds	r4, #7
    2100:	f024 0407 	bic.w	r4, r4, #7
    2104:	e8f4 2302 	ldrd	r2, r3, [r4], #8
    2108:	e9cd 2312 	strd	r2, r3, [sp, #72]	@ 0x48
    210c:	2300      	movs	r3, #0
    210e:	f015 0f10 	tst.w	r5, #16
    2112:	bf08      	it	eq
    2114:	f04f 0b06 	moveq.w	fp, #6
    2118:	461a      	mov	r2, r3
    211a:	4619      	mov	r1, r3
    211c:	469c      	mov	ip, r3
    211e:	f445 6580 	orr.w	r5, r5, #1024	@ 0x400
    2122:	e179      	b.n	2418 <__vfprintf+0x564>
    2124:	f854 7b04 	ldr.w	r7, [r4], #4
    2128:	e7c1      	b.n	20ae <__vfprintf+0x1fa>
    212a:	f415 7f00 	tst.w	r5, #512	@ 0x200
    212e:	bf0c      	ite	eq
    2130:	f04f 0b20 	moveq.w	fp, #32
    2134:	f04f 0b30 	movne.w	fp, #48	@ 0x30
    2138:	4645      	mov	r5, r8
    213a:	f1ba 0a01 	subs.w	sl, sl, #1
    213e:	d530      	bpl.n	21a2 <__vfprintf+0x2ee>
    2140:	f1b9 0f00 	cmp.w	r9, #0
    2144:	bfd8      	it	le
    2146:	2300      	movle	r3, #0
    2148:	9908      	ldr	r1, [sp, #32]
    214a:	bfc8      	it	gt
    214c:	f109 33ff 	addgt.w	r3, r9, #4294967295
    2150:	eb13 0308 	adds.w	r3, r3, r8
    2154:	ea4f 72e8 	mov.w	r2, r8, asr #31
    2158:	f142 0200 	adc.w	r2, r2, #0
    215c:	f1b9 0f01 	cmp.w	r9, #1
    2160:	bfac      	ite	ge
    2162:	44c8      	addge	r8, r9
    2164:	f108 0801 	addlt.w	r8, r8, #1
    2168:	428b      	cmp	r3, r1
    216a:	9b09      	ldr	r3, [sp, #36]	@ 0x24
    216c:	419a      	sbcs	r2, r3
    216e:	da15      	bge.n	219c <__vfprintf+0x2e8>
    2170:	f1b9 0f00 	cmp.w	r9, #0
    2174:	f1c9 0a01 	rsb	sl, r9, #1
    2178:	bfd8      	it	le
    217a:	f04f 0a00 	movle.w	sl, #0
    217e:	f1a9 0902 	sub.w	r9, r9, #2
    2182:	44ca      	add	sl, r9
    2184:	68b3      	ldr	r3, [r6, #8]
    2186:	3b01      	subs	r3, #1
    2188:	2b00      	cmp	r3, #0
    218a:	60b3      	str	r3, [r6, #8]
    218c:	db24      	blt.n	21d8 <__vfprintf+0x324>
    218e:	6833      	ldr	r3, [r6, #0]
    2190:	1c5a      	adds	r2, r3, #1
    2192:	6032      	str	r2, [r6, #0]
    2194:	701f      	strb	r7, [r3, #0]
    2196:	9b05      	ldr	r3, [sp, #20]
    2198:	2b00      	cmp	r3, #0
    219a:	d198      	bne.n	20ce <__vfprintf+0x21a>
    219c:	f8dd a010 	ldr.w	sl, [sp, #16]
    21a0:	e6a5      	b.n	1eee <__vfprintf+0x3a>
    21a2:	9a08      	ldr	r2, [sp, #32]
    21a4:	4295      	cmp	r5, r2
    21a6:	9a09      	ldr	r2, [sp, #36]	@ 0x24
    21a8:	eb73 0102 	sbcs.w	r1, r3, r2
    21ac:	da09      	bge.n	21c2 <__vfprintf+0x30e>
    21ae:	68b1      	ldr	r1, [r6, #8]
    21b0:	3901      	subs	r1, #1
    21b2:	2900      	cmp	r1, #0
    21b4:	60b1      	str	r1, [r6, #8]
    21b6:	db08      	blt.n	21ca <__vfprintf+0x316>
    21b8:	6831      	ldr	r1, [r6, #0]
    21ba:	1c48      	adds	r0, r1, #1
    21bc:	6030      	str	r0, [r6, #0]
    21be:	f881 b000 	strb.w	fp, [r1]
    21c2:	3501      	adds	r5, #1
    21c4:	f143 0300 	adc.w	r3, r3, #0
    21c8:	e7b7      	b.n	213a <__vfprintf+0x286>
    21ca:	4631      	mov	r1, r6
    21cc:	4658      	mov	r0, fp
    21ce:	9306      	str	r3, [sp, #24]
    21d0:	f002 f903 	bl	43da <__flsbuf>
    21d4:	9b06      	ldr	r3, [sp, #24]
    21d6:	e7f4      	b.n	21c2 <__vfprintf+0x30e>
    21d8:	4631      	mov	r1, r6
    21da:	4638      	mov	r0, r7
    21dc:	f002 f8fd 	bl	43da <__flsbuf>
    21e0:	e7d9      	b.n	2196 <__vfprintf+0x2e2>
    21e2:	9b08      	ldr	r3, [sp, #32]
    21e4:	429d      	cmp	r5, r3
    21e6:	9b09      	ldr	r3, [sp, #36]	@ 0x24
    21e8:	eb79 0303 	sbcs.w	r3, r9, r3
    21ec:	da09      	bge.n	2202 <__vfprintf+0x34e>
    21ee:	68b3      	ldr	r3, [r6, #8]
    21f0:	3b01      	subs	r3, #1
    21f2:	2b00      	cmp	r3, #0
    21f4:	60b3      	str	r3, [r6, #8]
    21f6:	db08      	blt.n	220a <__vfprintf+0x356>
    21f8:	6833      	ldr	r3, [r6, #0]
    21fa:	1c5a      	adds	r2, r3, #1
    21fc:	6032      	str	r2, [r6, #0]
    21fe:	f883 b000 	strb.w	fp, [r3]
    2202:	3501      	adds	r5, #1
    2204:	f149 0900 	adc.w	r9, r9, #0
    2208:	e767      	b.n	20da <__vfprintf+0x226>
    220a:	4631      	mov	r1, r6
    220c:	2020      	movs	r0, #32
    220e:	f002 f8e4 	bl	43da <__flsbuf>
    2212:	e7f6      	b.n	2202 <__vfprintf+0x34e>
    2214:	066f      	lsls	r7, r5, #25
    2216:	6822      	ldr	r2, [r4, #0]
    2218:	f104 0304 	add.w	r3, r4, #4
    221c:	d505      	bpl.n	222a <__vfprintf+0x376>
    221e:	ea4f 71e8 	mov.w	r1, r8, asr #31
    2222:	e9c2 8100 	strd	r8, r1, [r2]
    2226:	461c      	mov	r4, r3
    2228:	e7b8      	b.n	219c <__vfprintf+0x2e8>
    222a:	06ac      	lsls	r4, r5, #26
    222c:	d502      	bpl.n	2234 <__vfprintf+0x380>
    222e:	f8c2 8000 	str.w	r8, [r2]
    2232:	e7f8      	b.n	2226 <__vfprintf+0x372>
    2234:	05e8      	lsls	r0, r5, #23
    2236:	d502      	bpl.n	223e <__vfprintf+0x38a>
    2238:	f882 8000 	strb.w	r8, [r2]
    223c:	e7f3      	b.n	2226 <__vfprintf+0x372>
    223e:	0629      	lsls	r1, r5, #24
    2240:	d5f5      	bpl.n	222e <__vfprintf+0x37a>
    2242:	f8a2 8000 	strh.w	r8, [r2]
    2246:	e7ee      	b.n	2226 <__vfprintf+0x372>
    2248:	4bab      	ldr	r3, [pc, #684]	@ (24f8 <__vfprintf+0x644>)
    224a:	f854 ab04 	ldr.w	sl, [r4], #4
    224e:	f1ba 0f00 	cmp.w	sl, #0
    2252:	bf08      	it	eq
    2254:	469a      	moveq	sl, r3
    2256:	4650      	mov	r0, sl
    2258:	f002 f878 	bl	434c <strlen>
    225c:	06eb      	lsls	r3, r5, #27
    225e:	4607      	mov	r7, r0
    2260:	d502      	bpl.n	2268 <__vfprintf+0x3b4>
    2262:	4558      	cmp	r0, fp
    2264:	bfa8      	it	ge
    2266:	465f      	movge	r7, fp
    2268:	f015 0301 	ands.w	r3, r5, #1
    226c:	eba9 0907 	sub.w	r9, r9, r7
    2270:	9305      	str	r3, [sp, #20]
    2272:	d112      	bne.n	229a <__vfprintf+0x3e6>
    2274:	f415 7f00 	tst.w	r5, #512	@ 0x200
    2278:	bf0c      	ite	eq
    227a:	2220      	moveq	r2, #32
    227c:	2230      	movne	r2, #48	@ 0x30
    227e:	4645      	mov	r5, r8
    2280:	46cb      	mov	fp, r9
    2282:	ea4f 73e8 	mov.w	r3, r8, asr #31
    2286:	f1bb 0b01 	subs.w	fp, fp, #1
    228a:	d521      	bpl.n	22d0 <__vfprintf+0x41c>
    228c:	ea29 73e9 	bic.w	r3, r9, r9, asr #31
    2290:	f109 39ff 	add.w	r9, r9, #4294967295
    2294:	4498      	add	r8, r3
    2296:	eba9 0903 	sub.w	r9, r9, r3
    229a:	4645      	mov	r5, r8
    229c:	f04f 0b00 	mov.w	fp, #0
    22a0:	ea4f 73e8 	mov.w	r3, r8, asr #31
    22a4:	45bb      	cmp	fp, r7
    22a6:	db2f      	blt.n	2308 <__vfprintf+0x454>
    22a8:	9b05      	ldr	r3, [sp, #20]
    22aa:	2f00      	cmp	r7, #0
    22ac:	bfa8      	it	ge
    22ae:	44b8      	addge	r8, r7
    22b0:	2b00      	cmp	r3, #0
    22b2:	f43f af73 	beq.w	219c <__vfprintf+0x2e8>
    22b6:	4645      	mov	r5, r8
    22b8:	464f      	mov	r7, r9
    22ba:	f04f 0b20 	mov.w	fp, #32
    22be:	ea4f 7ae8 	mov.w	sl, r8, asr #31
    22c2:	3f01      	subs	r7, #1
    22c4:	d53f      	bpl.n	2346 <__vfprintf+0x492>
    22c6:	f1b9 0f00 	cmp.w	r9, #0
    22ca:	bfa8      	it	ge
    22cc:	44c8      	addge	r8, r9
    22ce:	e765      	b.n	219c <__vfprintf+0x2e8>
    22d0:	9908      	ldr	r1, [sp, #32]
    22d2:	428d      	cmp	r5, r1
    22d4:	9909      	ldr	r1, [sp, #36]	@ 0x24
    22d6:	eb73 0101 	sbcs.w	r1, r3, r1
    22da:	da08      	bge.n	22ee <__vfprintf+0x43a>
    22dc:	68b1      	ldr	r1, [r6, #8]
    22de:	3901      	subs	r1, #1
    22e0:	2900      	cmp	r1, #0
    22e2:	60b1      	str	r1, [r6, #8]
    22e4:	db07      	blt.n	22f6 <__vfprintf+0x442>
    22e6:	6831      	ldr	r1, [r6, #0]
    22e8:	1c48      	adds	r0, r1, #1
    22ea:	6030      	str	r0, [r6, #0]
    22ec:	700a      	strb	r2, [r1, #0]
    22ee:	3501      	adds	r5, #1
    22f0:	f143 0300 	adc.w	r3, r3, #0
    22f4:	e7c7      	b.n	2286 <__vfprintf+0x3d2>
    22f6:	4610      	mov	r0, r2
    22f8:	4631      	mov	r1, r6
    22fa:	9307      	str	r3, [sp, #28]
    22fc:	9206      	str	r2, [sp, #24]
    22fe:	f002 f86c 	bl	43da <__flsbuf>
    2302:	e9dd 2306 	ldrd	r2, r3, [sp, #24]
    2306:	e7f2      	b.n	22ee <__vfprintf+0x43a>
    2308:	9a08      	ldr	r2, [sp, #32]
    230a:	4295      	cmp	r5, r2
    230c:	9a09      	ldr	r2, [sp, #36]	@ 0x24
    230e:	eb73 0202 	sbcs.w	r2, r3, r2
    2312:	da0a      	bge.n	232a <__vfprintf+0x476>
    2314:	68b2      	ldr	r2, [r6, #8]
    2316:	3a01      	subs	r2, #1
    2318:	2a00      	cmp	r2, #0
    231a:	60b2      	str	r2, [r6, #8]
    231c:	db0b      	blt.n	2336 <__vfprintf+0x482>
    231e:	6832      	ldr	r2, [r6, #0]
    2320:	1c51      	adds	r1, r2, #1
    2322:	6031      	str	r1, [r6, #0]
    2324:	f81a 100b 	ldrb.w	r1, [sl, fp]
    2328:	7011      	strb	r1, [r2, #0]
    232a:	3501      	adds	r5, #1
    232c:	f10b 0b01 	add.w	fp, fp, #1
    2330:	f143 0300 	adc.w	r3, r3, #0
    2334:	e7b6      	b.n	22a4 <__vfprintf+0x3f0>
    2336:	4631      	mov	r1, r6
    2338:	f81a 000b 	ldrb.w	r0, [sl, fp]
    233c:	9306      	str	r3, [sp, #24]
    233e:	f002 f84c 	bl	43da <__flsbuf>
    2342:	9b06      	ldr	r3, [sp, #24]
    2344:	e7f1      	b.n	232a <__vfprintf+0x476>
    2346:	9b08      	ldr	r3, [sp, #32]
    2348:	429d      	cmp	r5, r3
    234a:	9b09      	ldr	r3, [sp, #36]	@ 0x24
    234c:	eb7a 0303 	sbcs.w	r3, sl, r3
    2350:	da09      	bge.n	2366 <__vfprintf+0x4b2>
    2352:	68b3      	ldr	r3, [r6, #8]
    2354:	3b01      	subs	r3, #1
    2356:	2b00      	cmp	r3, #0
    2358:	60b3      	str	r3, [r6, #8]
    235a:	db08      	blt.n	236e <__vfprintf+0x4ba>
    235c:	6833      	ldr	r3, [r6, #0]
    235e:	1c5a      	adds	r2, r3, #1
    2360:	6032      	str	r2, [r6, #0]
    2362:	f883 b000 	strb.w	fp, [r3]
    2366:	3501      	adds	r5, #1
    2368:	f14a 0a00 	adc.w	sl, sl, #0
    236c:	e7a9      	b.n	22c2 <__vfprintf+0x40e>
    236e:	4631      	mov	r1, r6
    2370:	2020      	movs	r0, #32
    2372:	f002 f832 	bl	43da <__flsbuf>
    2376:	e7f6      	b.n	2366 <__vfprintf+0x4b2>
    2378:	f015 0240 	ands.w	r2, r5, #64	@ 0x40
    237c:	bf1d      	ittte	ne
    237e:	1de2      	addne	r2, r4, #7
    2380:	f022 0207 	bicne.w	r2, r2, #7
    2384:	4614      	movne	r4, r2
    2386:	f854 3b04 	ldreq.w	r3, [r4], #4
    238a:	bf1c      	itt	ne
    238c:	f854 3b08 	ldrne.w	r3, [r4], #8
    2390:	6852      	ldrne	r2, [r2, #4]
    2392:	f015 0180 	ands.w	r1, r5, #128	@ 0x80
    2396:	d00e      	beq.n	23b6 <__vfprintf+0x502>
    2398:	2200      	movs	r2, #0
    239a:	b29b      	uxth	r3, r3
    239c:	4957      	ldr	r1, [pc, #348]	@ (24fc <__vfprintf+0x648>)
    239e:	4858      	ldr	r0, [pc, #352]	@ (2500 <__vfprintf+0x64c>)
    23a0:	f015 0f08 	tst.w	r5, #8
    23a4:	bf14      	ite	ne
    23a6:	4684      	movne	ip, r0
    23a8:	468c      	moveq	ip, r1
    23aa:	06e9      	lsls	r1, r5, #27
    23ac:	d501      	bpl.n	23b2 <__vfprintf+0x4fe>
    23ae:	f425 7500 	bic.w	r5, r5, #512	@ 0x200
    23b2:	4954      	ldr	r1, [pc, #336]	@ (2504 <__vfprintf+0x650>)
    23b4:	e030      	b.n	2418 <__vfprintf+0x564>
    23b6:	05e8      	lsls	r0, r5, #23
    23b8:	bf44      	itt	mi
    23ba:	460a      	movmi	r2, r1
    23bc:	f003 03ff 	andmi.w	r3, r3, #255	@ 0xff
    23c0:	e7ec      	b.n	239c <__vfprintf+0x4e8>
    23c2:	f015 0240 	ands.w	r2, r5, #64	@ 0x40
    23c6:	bf1d      	ittte	ne
    23c8:	1de2      	addne	r2, r4, #7
    23ca:	f022 0207 	bicne.w	r2, r2, #7
    23ce:	4614      	movne	r4, r2
    23d0:	f854 3b04 	ldreq.w	r3, [r4], #4
    23d4:	bf1c      	itt	ne
    23d6:	f854 3b08 	ldrne.w	r3, [r4], #8
    23da:	6852      	ldrne	r2, [r2, #4]
    23dc:	f015 0180 	ands.w	r1, r5, #128	@ 0x80
    23e0:	d00e      	beq.n	2400 <__vfprintf+0x54c>
    23e2:	2200      	movs	r2, #0
    23e4:	b29b      	uxth	r3, r3
    23e6:	4945      	ldr	r1, [pc, #276]	@ (24fc <__vfprintf+0x648>)
    23e8:	4847      	ldr	r0, [pc, #284]	@ (2508 <__vfprintf+0x654>)
    23ea:	f015 0f08 	tst.w	r5, #8
    23ee:	bf14      	ite	ne
    23f0:	4684      	movne	ip, r0
    23f2:	468c      	moveq	ip, r1
    23f4:	06e9      	lsls	r1, r5, #27
    23f6:	d501      	bpl.n	23fc <__vfprintf+0x548>
    23f8:	f425 7500 	bic.w	r5, r5, #512	@ 0x200
    23fc:	4943      	ldr	r1, [pc, #268]	@ (250c <__vfprintf+0x658>)
    23fe:	e00b      	b.n	2418 <__vfprintf+0x564>
    2400:	05e8      	lsls	r0, r5, #23
    2402:	bf44      	itt	mi
    2404:	460a      	movmi	r2, r1
    2406:	f003 03ff 	andmi.w	r3, r3, #255	@ 0xff
    240a:	e7ec      	b.n	23e6 <__vfprintf+0x532>
    240c:	2200      	movs	r2, #0
    240e:	f854 3b04 	ldr.w	r3, [r4], #4
    2412:	493e      	ldr	r1, [pc, #248]	@ (250c <__vfprintf+0x658>)
    2414:	f8df c0f0 	ldr.w	ip, [pc, #240]	@ 2508 <__vfprintf+0x654>
    2418:	9808      	ldr	r0, [sp, #32]
    241a:	e9cd bc0e 	strd	fp, ip, [sp, #56]	@ 0x38
    241e:	ebb0 0008 	subs.w	r0, r0, r8
    2422:	9006      	str	r0, [sp, #24]
    2424:	9809      	ldr	r0, [sp, #36]	@ 0x24
    2426:	f10d 0c50 	add.w	ip, sp, #80	@ 0x50
    242a:	eb60 70e8 	sbc.w	r0, r0, r8, asr #31
    242e:	9007      	str	r0, [sp, #28]
    2430:	f04f 30ff 	mov.w	r0, #4294967295
    2434:	46e6      	mov	lr, ip
    2436:	e9cd 0010 	strd	r0, r0, [sp, #64]	@ 0x40
    243a:	f04f 0a55 	mov.w	sl, #85	@ 0x55
    243e:	2000      	movs	r0, #0
    2440:	3001      	adds	r0, #1
    2442:	2820      	cmp	r0, #32
    2444:	f80e ab01 	strb.w	sl, [lr], #1
    2448:	d1fa      	bne.n	2440 <__vfprintf+0x58c>
    244a:	f415 6f82 	tst.w	r5, #1040	@ 0x410
    244e:	bf04      	itt	eq
    2450:	2001      	moveq	r0, #1
    2452:	900e      	streq	r0, [sp, #56]	@ 0x38
    2454:	2f6e      	cmp	r7, #110	@ 0x6e
    2456:	f300 8094 	bgt.w	2582 <__vfprintf+0x6ce>
    245a:	2f47      	cmp	r7, #71	@ 0x47
    245c:	f300 80a2 	bgt.w	25a4 <__vfprintf+0x6f0>
    2460:	2351      	movs	r3, #81	@ 0x51
    2462:	f1a7 0241 	sub.w	r2, r7, #65	@ 0x41
    2466:	40d3      	lsrs	r3, r2
    2468:	f013 0301 	ands.w	r3, r3, #1
    246c:	f040 819b 	bne.w	27a6 <__vfprintf+0x8f2>
    2470:	f04f 0b00 	mov.w	fp, #0
    2474:	e0d2      	b.n	261c <__vfprintf+0x768>
    2476:	f015 0240 	ands.w	r2, r5, #64	@ 0x40
    247a:	bf1d      	ittte	ne
    247c:	1de2      	addne	r2, r4, #7
    247e:	f022 0207 	bicne.w	r2, r2, #7
    2482:	4614      	movne	r4, r2
    2484:	f854 3b04 	ldreq.w	r3, [r4], #4
    2488:	bf1c      	itt	ne
    248a:	f854 3b08 	ldrne.w	r3, [r4], #8
    248e:	6852      	ldrne	r2, [r2, #4]
    2490:	f015 0180 	ands.w	r1, r5, #128	@ 0x80
    2494:	d009      	beq.n	24aa <__vfprintf+0x5f6>
    2496:	2200      	movs	r2, #0
    2498:	b29b      	uxth	r3, r3
    249a:	481d      	ldr	r0, [pc, #116]	@ (2510 <__vfprintf+0x65c>)
    249c:	f015 0f08 	tst.w	r5, #8
    24a0:	4916      	ldr	r1, [pc, #88]	@ (24fc <__vfprintf+0x648>)
    24a2:	bf14      	ite	ne
    24a4:	4684      	movne	ip, r0
    24a6:	468c      	moveq	ip, r1
    24a8:	e04d      	b.n	2546 <__vfprintf+0x692>
    24aa:	05e8      	lsls	r0, r5, #23
    24ac:	bf44      	itt	mi
    24ae:	460a      	movmi	r2, r1
    24b0:	f003 03ff 	andmi.w	r3, r3, #255	@ 0xff
    24b4:	e7f1      	b.n	249a <__vfprintf+0x5e6>
    24b6:	f015 0240 	ands.w	r2, r5, #64	@ 0x40
    24ba:	bf1d      	ittte	ne
    24bc:	1de2      	addne	r2, r4, #7
    24be:	f022 0207 	bicne.w	r2, r2, #7
    24c2:	4614      	movne	r4, r2
    24c4:	f854 3b04 	ldreq.w	r3, [r4], #4
    24c8:	bf1c      	itt	ne
    24ca:	f854 3b08 	ldrne.w	r3, [r4], #8
    24ce:	6852      	ldrne	r2, [r2, #4]
    24d0:	f015 0180 	ands.w	r1, r5, #128	@ 0x80
    24d4:	d00a      	beq.n	24ec <__vfprintf+0x638>
    24d6:	2200      	movs	r2, #0
    24d8:	b29b      	uxth	r3, r3
    24da:	f015 0110 	ands.w	r1, r5, #16
    24de:	d002      	beq.n	24e6 <__vfprintf+0x632>
    24e0:	2100      	movs	r1, #0
    24e2:	f425 7500 	bic.w	r5, r5, #512	@ 0x200
    24e6:	f8df c014 	ldr.w	ip, [pc, #20]	@ 24fc <__vfprintf+0x648>
    24ea:	e795      	b.n	2418 <__vfprintf+0x564>
    24ec:	05e8      	lsls	r0, r5, #23
    24ee:	bf44      	itt	mi
    24f0:	460a      	movmi	r2, r1
    24f2:	f003 03ff 	andmi.w	r3, r3, #255	@ 0xff
    24f6:	e7f0      	b.n	24da <__vfprintf+0x626>
    24f8:	00004fbc 	.word	0x00004fbc
    24fc:	00004fb7 	.word	0x00004fb7
    2500:	00004fc3 	.word	0x00004fc3
    2504:	00004fd1 	.word	0x00004fd1
    2508:	00004fc6 	.word	0x00004fc6
    250c:	00004fe2 	.word	0x00004fe2
    2510:	00004fc9 	.word	0x00004fc9
    2514:	0668      	lsls	r0, r5, #25
    2516:	bf43      	ittte	mi
    2518:	1de2      	addmi	r2, r4, #7
    251a:	f022 0207 	bicmi.w	r2, r2, #7
    251e:	4614      	movmi	r4, r2
    2520:	f854 3b04 	ldrpl.w	r3, [r4], #4
    2524:	bf46      	itte	mi
    2526:	f854 3b08 	ldrmi.w	r3, [r4], #8
    252a:	6852      	ldrmi	r2, [r2, #4]
    252c:	17da      	asrpl	r2, r3, #31
    252e:	0629      	lsls	r1, r5, #24
    2530:	d511      	bpl.n	2556 <__vfprintf+0x6a2>
    2532:	f343 32c0 	sbfx	r2, r3, #15, #1
    2536:	b21b      	sxth	r3, r3
    2538:	2a00      	cmp	r2, #0
    253a:	da12      	bge.n	2562 <__vfprintf+0x6ae>
    253c:	425b      	negs	r3, r3
    253e:	f8df c318 	ldr.w	ip, [pc, #792]	@ 2858 <__vfprintf+0x9a4>
    2542:	eb62 0242 	sbc.w	r2, r2, r2, lsl #1
    2546:	f015 0110 	ands.w	r1, r5, #16
    254a:	f43f af65 	beq.w	2418 <__vfprintf+0x564>
    254e:	2100      	movs	r1, #0
    2550:	f425 7500 	bic.w	r5, r5, #512	@ 0x200
    2554:	e760      	b.n	2418 <__vfprintf+0x564>
    2556:	05e8      	lsls	r0, r5, #23
    2558:	bf44      	itt	mi
    255a:	f343 12c0 	sbfxmi	r2, r3, #7, #1
    255e:	b25b      	sxtbmi	r3, r3
    2560:	e7ea      	b.n	2538 <__vfprintf+0x684>
    2562:	07a9      	lsls	r1, r5, #30
    2564:	d403      	bmi.n	256e <__vfprintf+0x6ba>
    2566:	48bb      	ldr	r0, [pc, #748]	@ (2854 <__vfprintf+0x9a0>)
    2568:	f015 0f04 	tst.w	r5, #4
    256c:	e798      	b.n	24a0 <__vfprintf+0x5ec>
    256e:	f8df c2ec 	ldr.w	ip, [pc, #748]	@ 285c <__vfprintf+0x9a8>
    2572:	e7e8      	b.n	2546 <__vfprintf+0x692>
    2574:	06eb      	lsls	r3, r5, #27
    2576:	bf5c      	itt	pl
    2578:	f04f 0b0d 	movpl.w	fp, #13
    257c:	f045 0510 	orrpl.w	r5, r5, #16
    2580:	e5bd      	b.n	20fe <__vfprintf+0x24a>
    2582:	3f6f      	subs	r7, #111	@ 0x6f
    2584:	f04f 0b00 	mov.w	fp, #0
    2588:	2f09      	cmp	r7, #9
    258a:	d847      	bhi.n	261c <__vfprintf+0x768>
    258c:	e8df f017 	tbh	[pc, r7, lsl #1]
    2590:	004300bb 	.word	0x004300bb
    2594:	00460046 	.word	0x00460046
    2598:	00460046 	.word	0x00460046
    259c:	00460108 	.word	0x00460108
    25a0:	00430046 	.word	0x00430046
    25a4:	f1a7 0058 	sub.w	r0, r7, #88	@ 0x58
    25a8:	2811      	cmp	r0, #17
    25aa:	f63f af61 	bhi.w	2470 <__vfprintf+0x5bc>
    25ae:	f20f 0e08 	addw	lr, pc, #8
    25b2:	f85e f020 	ldr.w	pc, [lr, r0, lsl #2]
    25b6:	bf00      	nop
    25b8:	000026eb 	.word	0x000026eb
    25bc:	00002471 	.word	0x00002471
    25c0:	00002471 	.word	0x00002471
    25c4:	00002471 	.word	0x00002471
    25c8:	00002471 	.word	0x00002471
    25cc:	00002471 	.word	0x00002471
    25d0:	00002471 	.word	0x00002471
    25d4:	00002471 	.word	0x00002471
    25d8:	00002471 	.word	0x00002471
    25dc:	000027a7 	.word	0x000027a7
    25e0:	00002471 	.word	0x00002471
    25e4:	00002471 	.word	0x00002471
    25e8:	0000279d 	.word	0x0000279d
    25ec:	000027a7 	.word	0x000027a7
    25f0:	000027a7 	.word	0x000027a7
    25f4:	000027a7 	.word	0x000027a7
    25f8:	00002471 	.word	0x00002471
    25fc:	0000279d 	.word	0x0000279d
    2600:	f003 000f 	and.w	r0, r3, #15
    2604:	5c08      	ldrb	r0, [r1, r0]
    2606:	091b      	lsrs	r3, r3, #4
    2608:	ea43 7302 	orr.w	r3, r3, r2, lsl #28
    260c:	f10b 0b01 	add.w	fp, fp, #1
    2610:	f80c 0b01 	strb.w	r0, [ip], #1
    2614:	0912      	lsrs	r2, r2, #4
    2616:	ea53 0002 	orrs.w	r0, r3, r2
    261a:	d1f1      	bne.n	2600 <__vfprintf+0x74c>
    261c:	f415 6380 	ands.w	r3, r5, #1024	@ 0x400
    2620:	930b      	str	r3, [sp, #44]	@ 0x2c
    2622:	f000 80d0 	beq.w	27c6 <__vfprintf+0x912>
    2626:	2300      	movs	r3, #0
    2628:	930e      	str	r3, [sp, #56]	@ 0x38
    262a:	9b10      	ldr	r3, [sp, #64]	@ 0x40
    262c:	2b00      	cmp	r3, #0
    262e:	bfc4      	itt	gt
    2630:	f103 33ff 	addgt.w	r3, r3, #4294967295
    2634:	930e      	strgt	r3, [sp, #56]	@ 0x38
    2636:	9b11      	ldr	r3, [sp, #68]	@ 0x44
    2638:	9a0e      	ldr	r2, [sp, #56]	@ 0x38
    263a:	2b00      	cmp	r3, #0
    263c:	dd02      	ble.n	2644 <__vfprintf+0x790>
    263e:	3b01      	subs	r3, #1
    2640:	4413      	add	r3, r2
    2642:	930e      	str	r3, [sp, #56]	@ 0x38
    2644:	980f      	ldr	r0, [sp, #60]	@ 0x3c
    2646:	9f0e      	ldr	r7, [sp, #56]	@ 0x38
    2648:	f001 fe80 	bl	434c <strlen>
    264c:	445f      	add	r7, fp
    264e:	eba9 0707 	sub.w	r7, r9, r7
    2652:	1a3b      	subs	r3, r7, r0
    2654:	f240 2701 	movw	r7, #513	@ 0x201
    2658:	9305      	str	r3, [sp, #20]
    265a:	402f      	ands	r7, r5
    265c:	f005 0301 	and.w	r3, r5, #1
    2660:	930c      	str	r3, [sp, #48]	@ 0x30
    2662:	f000 80db 	beq.w	281c <__vfprintf+0x968>
    2666:	2700      	movs	r7, #0
    2668:	46b9      	mov	r9, r7
    266a:	ea4f 7ae7 	mov.w	sl, r7, asr #31
    266e:	9b0f      	ldr	r3, [sp, #60]	@ 0x3c
    2670:	1c5a      	adds	r2, r3, #1
    2672:	920f      	str	r2, [sp, #60]	@ 0x3c
    2674:	781b      	ldrb	r3, [r3, #0]
    2676:	930a      	str	r3, [sp, #40]	@ 0x28
    2678:	2b00      	cmp	r3, #0
    267a:	f040 80d4 	bne.w	2826 <__vfprintf+0x972>
    267e:	9b0c      	ldr	r3, [sp, #48]	@ 0x30
    2680:	b9b3      	cbnz	r3, 26b0 <__vfprintf+0x7fc>
    2682:	f415 7f00 	tst.w	r5, #512	@ 0x200
    2686:	bf0c      	ite	eq
    2688:	2320      	moveq	r3, #32
    268a:	2330      	movne	r3, #48	@ 0x30
    268c:	463d      	mov	r5, r7
    268e:	f8dd 9014 	ldr.w	r9, [sp, #20]
    2692:	930d      	str	r3, [sp, #52]	@ 0x34
    2694:	ea4f 7ae7 	mov.w	sl, r7, asr #31
    2698:	f1b9 0901 	subs.w	r9, r9, #1
    269c:	f140 80e5 	bpl.w	286a <__vfprintf+0x9b6>
    26a0:	9b05      	ldr	r3, [sp, #20]
    26a2:	9a05      	ldr	r2, [sp, #20]
    26a4:	ea23 73e3 	bic.w	r3, r3, r3, asr #31
    26a8:	3a01      	subs	r2, #1
    26aa:	441f      	add	r7, r3
    26ac:	1ad3      	subs	r3, r2, r3
    26ae:	9305      	str	r3, [sp, #20]
    26b0:	9b0b      	ldr	r3, [sp, #44]	@ 0x2c
    26b2:	2b00      	cmp	r3, #0
    26b4:	f000 80f2 	beq.w	289c <__vfprintf+0x9e8>
    26b8:	f04f 0a30 	mov.w	sl, #48	@ 0x30
    26bc:	9b0a      	ldr	r3, [sp, #40]	@ 0x28
    26be:	459b      	cmp	fp, r3
    26c0:	f300 8104 	bgt.w	28cc <__vfprintf+0xa18>
    26c4:	9b0c      	ldr	r3, [sp, #48]	@ 0x30
    26c6:	b173      	cbz	r3, 26e6 <__vfprintf+0x832>
    26c8:	463d      	mov	r5, r7
    26ca:	f04f 0b20 	mov.w	fp, #32
    26ce:	f8dd 9014 	ldr.w	r9, [sp, #20]
    26d2:	ea4f 7ae7 	mov.w	sl, r7, asr #31
    26d6:	f1b9 0901 	subs.w	r9, r9, #1
    26da:	f140 818e 	bpl.w	29fa <__vfprintf+0xb46>
    26de:	9b05      	ldr	r3, [sp, #20]
    26e0:	2b00      	cmp	r3, #0
    26e2:	bfa8      	it	ge
    26e4:	18ff      	addge	r7, r7, r3
    26e6:	44b8      	add	r8, r7
    26e8:	e558      	b.n	219c <__vfprintf+0x2e8>
    26ea:	f04f 0b00 	mov.w	fp, #0
    26ee:	e792      	b.n	2616 <__vfprintf+0x762>
    26f0:	f003 0107 	and.w	r1, r3, #7
    26f4:	3130      	adds	r1, #48	@ 0x30
    26f6:	08db      	lsrs	r3, r3, #3
    26f8:	ea43 7342 	orr.w	r3, r3, r2, lsl #29
    26fc:	f10b 0b01 	add.w	fp, fp, #1
    2700:	f80c 1b01 	strb.w	r1, [ip], #1
    2704:	08d2      	lsrs	r2, r2, #3
    2706:	ea53 0102 	orrs.w	r1, r3, r2
    270a:	d1f1      	bne.n	26f0 <__vfprintf+0x83c>
    270c:	e786      	b.n	261c <__vfprintf+0x768>
    270e:	0858      	lsrs	r0, r3, #1
    2710:	089f      	lsrs	r7, r3, #2
    2712:	ea40 70c2 	orr.w	r0, r0, r2, lsl #31
    2716:	ea47 7782 	orr.w	r7, r7, r2, lsl #30
    271a:	19c7      	adds	r7, r0, r7
    271c:	ea4f 0192 	mov.w	r1, r2, lsr #2
    2720:	eb41 0152 	adc.w	r1, r1, r2, lsr #1
    2724:	0938      	lsrs	r0, r7, #4
    2726:	ea40 7001 	orr.w	r0, r0, r1, lsl #28
    272a:	183f      	adds	r7, r7, r0
    272c:	eb41 1111 	adc.w	r1, r1, r1, lsr #4
    2730:	0a38      	lsrs	r0, r7, #8
    2732:	ea40 6001 	orr.w	r0, r0, r1, lsl #24
    2736:	183f      	adds	r7, r7, r0
    2738:	eb41 2111 	adc.w	r1, r1, r1, lsr #8
    273c:	0c38      	lsrs	r0, r7, #16
    273e:	ea40 4001 	orr.w	r0, r0, r1, lsl #16
    2742:	1838      	adds	r0, r7, r0
    2744:	eb41 4111 	adc.w	r1, r1, r1, lsr #16
    2748:	1840      	adds	r0, r0, r1
    274a:	f141 0100 	adc.w	r1, r1, #0
    274e:	08c0      	lsrs	r0, r0, #3
    2750:	1d9f      	adds	r7, r3, #6
    2752:	ea40 7041 	orr.w	r0, r0, r1, lsl #29
    2756:	f142 0a00 	adc.w	sl, r2, #0
    275a:	970a      	str	r7, [sp, #40]	@ 0x28
    275c:	fba0 720e 	umull	r7, r2, r0, lr
    2760:	08c9      	lsrs	r1, r1, #3
    2762:	fb0e 2201 	mla	r2, lr, r1, r2
    2766:	9205      	str	r2, [sp, #20]
    2768:	9a0a      	ldr	r2, [sp, #40]	@ 0x28
    276a:	3330      	adds	r3, #48	@ 0x30
    276c:	1bd7      	subs	r7, r2, r7
    276e:	9a05      	ldr	r2, [sp, #20]
    2770:	ea4f 1717 	mov.w	r7, r7, lsr #4
    2774:	eb6a 0202 	sbc.w	r2, sl, r2
    2778:	ea47 7702 	orr.w	r7, r7, r2, lsl #28
    277c:	183f      	adds	r7, r7, r0
    277e:	eb07 0087 	add.w	r0, r7, r7, lsl #2
    2782:	eba3 0340 	sub.w	r3, r3, r0, lsl #1
    2786:	f80c 3b01 	strb.w	r3, [ip], #1
    278a:	463b      	mov	r3, r7
    278c:	f10b 0b01 	add.w	fp, fp, #1
    2790:	eb41 1212 	adc.w	r2, r1, r2, lsr #4
    2794:	ea53 0102 	orrs.w	r1, r3, r2
    2798:	d1b9      	bne.n	270e <__vfprintf+0x85a>
    279a:	e73f      	b.n	261c <__vfprintf+0x768>
    279c:	f04f 0b00 	mov.w	fp, #0
    27a0:	f04f 0e0a 	mov.w	lr, #10
    27a4:	e7f6      	b.n	2794 <__vfprintf+0x8e0>
    27a6:	ab11      	add	r3, sp, #68	@ 0x44
    27a8:	9303      	str	r3, [sp, #12]
    27aa:	ab10      	add	r3, sp, #64	@ 0x40
    27ac:	9302      	str	r3, [sp, #8]
    27ae:	ab0e      	add	r3, sp, #56	@ 0x38
    27b0:	9301      	str	r3, [sp, #4]
    27b2:	ab0f      	add	r3, sp, #60	@ 0x3c
    27b4:	4638      	mov	r0, r7
    27b6:	9300      	str	r3, [sp, #0]
    27b8:	9f28      	ldr	r7, [sp, #160]	@ 0xa0
    27ba:	462b      	mov	r3, r5
    27bc:	aa14      	add	r2, sp, #80	@ 0x50
    27be:	a912      	add	r1, sp, #72	@ 0x48
    27c0:	47b8      	blx	r7
    27c2:	4683      	mov	fp, r0
    27c4:	e72a      	b.n	261c <__vfprintf+0x768>
    27c6:	9b0e      	ldr	r3, [sp, #56]	@ 0x38
    27c8:	9a0b      	ldr	r2, [sp, #44]	@ 0x2c
    27ca:	ebb3 030b 	subs.w	r3, r3, fp
    27ce:	bf48      	it	mi
    27d0:	4613      	movmi	r3, r2
    27d2:	e736      	b.n	2642 <__vfprintf+0x78e>
    27d4:	9b06      	ldr	r3, [sp, #24]
    27d6:	429f      	cmp	r7, r3
    27d8:	9b07      	ldr	r3, [sp, #28]
    27da:	eb79 0303 	sbcs.w	r3, r9, r3
    27de:	da0a      	bge.n	27f6 <__vfprintf+0x942>
    27e0:	68b3      	ldr	r3, [r6, #8]
    27e2:	3b01      	subs	r3, #1
    27e4:	2b00      	cmp	r3, #0
    27e6:	60b3      	str	r3, [r6, #8]
    27e8:	db13      	blt.n	2812 <__vfprintf+0x95e>
    27ea:	6833      	ldr	r3, [r6, #0]
    27ec:	1c5a      	adds	r2, r3, #1
    27ee:	6032      	str	r2, [r6, #0]
    27f0:	f04f 0220 	mov.w	r2, #32
    27f4:	701a      	strb	r2, [r3, #0]
    27f6:	3701      	adds	r7, #1
    27f8:	f149 0900 	adc.w	r9, r9, #0
    27fc:	ebaa 0307 	sub.w	r3, sl, r7
    2800:	2b00      	cmp	r3, #0
    2802:	dae7      	bge.n	27d4 <__vfprintf+0x920>
    2804:	9b05      	ldr	r3, [sp, #20]
    2806:	ea23 77e3 	bic.w	r7, r3, r3, asr #31
    280a:	ebaa 0307 	sub.w	r3, sl, r7
    280e:	9305      	str	r3, [sp, #20]
    2810:	e72a      	b.n	2668 <__vfprintf+0x7b4>
    2812:	4631      	mov	r1, r6
    2814:	2020      	movs	r0, #32
    2816:	f001 fde0 	bl	43da <__flsbuf>
    281a:	e7ec      	b.n	27f6 <__vfprintf+0x942>
    281c:	9b05      	ldr	r3, [sp, #20]
    281e:	46b9      	mov	r9, r7
    2820:	f103 3aff 	add.w	sl, r3, #4294967295
    2824:	e7ea      	b.n	27fc <__vfprintf+0x948>
    2826:	9b06      	ldr	r3, [sp, #24]
    2828:	3701      	adds	r7, #1
    282a:	4599      	cmp	r9, r3
    282c:	9b07      	ldr	r3, [sp, #28]
    282e:	eb7a 0303 	sbcs.w	r3, sl, r3
    2832:	da09      	bge.n	2848 <__vfprintf+0x994>
    2834:	68b3      	ldr	r3, [r6, #8]
    2836:	3b01      	subs	r3, #1
    2838:	2b00      	cmp	r3, #0
    283a:	60b3      	str	r3, [r6, #8]
    283c:	db10      	blt.n	2860 <__vfprintf+0x9ac>
    283e:	6833      	ldr	r3, [r6, #0]
    2840:	1c5a      	adds	r2, r3, #1
    2842:	6032      	str	r2, [r6, #0]
    2844:	9a0a      	ldr	r2, [sp, #40]	@ 0x28
    2846:	701a      	strb	r2, [r3, #0]
    2848:	f119 0901 	adds.w	r9, r9, #1
    284c:	f14a 0a00 	adc.w	sl, sl, #0
    2850:	e70d      	b.n	266e <__vfprintf+0x7ba>
    2852:	bf00      	nop
    2854:	00004fcf 	.word	0x00004fcf
    2858:	00004fcb 	.word	0x00004fcb
    285c:	00004fcd 	.word	0x00004fcd
    2860:	4631      	mov	r1, r6
    2862:	980a      	ldr	r0, [sp, #40]	@ 0x28
    2864:	f001 fdb9 	bl	43da <__flsbuf>
    2868:	e7ee      	b.n	2848 <__vfprintf+0x994>
    286a:	9b06      	ldr	r3, [sp, #24]
    286c:	429d      	cmp	r5, r3
    286e:	9b07      	ldr	r3, [sp, #28]
    2870:	eb7a 0303 	sbcs.w	r3, sl, r3
    2874:	da09      	bge.n	288a <__vfprintf+0x9d6>
    2876:	68b3      	ldr	r3, [r6, #8]
    2878:	3b01      	subs	r3, #1
    287a:	2b00      	cmp	r3, #0
    287c:	60b3      	str	r3, [r6, #8]
    287e:	db08      	blt.n	2892 <__vfprintf+0x9de>
    2880:	6833      	ldr	r3, [r6, #0]
    2882:	1c5a      	adds	r2, r3, #1
    2884:	6032      	str	r2, [r6, #0]
    2886:	9a0d      	ldr	r2, [sp, #52]	@ 0x34
    2888:	701a      	strb	r2, [r3, #0]
    288a:	3501      	adds	r5, #1
    288c:	f14a 0a00 	adc.w	sl, sl, #0
    2890:	e702      	b.n	2698 <__vfprintf+0x7e4>
    2892:	4631      	mov	r1, r6
    2894:	980d      	ldr	r0, [sp, #52]	@ 0x34
    2896:	f001 fda0 	bl	43da <__flsbuf>
    289a:	e7f6      	b.n	288a <__vfprintf+0x9d6>
    289c:	463d      	mov	r5, r7
    289e:	f04f 0a30 	mov.w	sl, #48	@ 0x30
    28a2:	ea4f 79e7 	mov.w	r9, r7, asr #31
    28a6:	9b0e      	ldr	r3, [sp, #56]	@ 0x38
    28a8:	3b01      	subs	r3, #1
    28aa:	2b00      	cmp	r3, #0
    28ac:	930e      	str	r3, [sp, #56]	@ 0x38
    28ae:	da6f      	bge.n	2990 <__vfprintf+0xadc>
    28b0:	463d      	mov	r5, r7
    28b2:	465b      	mov	r3, fp
    28b4:	ea4f 79e7 	mov.w	r9, r7, asr #31
    28b8:	2b00      	cmp	r3, #0
    28ba:	f103 3aff 	add.w	sl, r3, #4294967295
    28be:	f300 8081 	bgt.w	29c4 <__vfprintf+0xb10>
    28c2:	f1bb 0f00 	cmp.w	fp, #0
    28c6:	bfa8      	it	ge
    28c8:	445f      	addge	r7, fp
    28ca:	e6fb      	b.n	26c4 <__vfprintf+0x810>
    28cc:	9b0a      	ldr	r3, [sp, #40]	@ 0x28
    28ce:	aa14      	add	r2, sp, #80	@ 0x50
    28d0:	5cd0      	ldrb	r0, [r2, r3]
    28d2:	17fd      	asrs	r5, r7, #31
    28d4:	283c      	cmp	r0, #60	@ 0x3c
    28d6:	d01d      	beq.n	2914 <__vfprintf+0xa60>
    28d8:	283e      	cmp	r0, #62	@ 0x3e
    28da:	d145      	bne.n	2968 <__vfprintf+0xab4>
    28dc:	46b9      	mov	r9, r7
    28de:	9b11      	ldr	r3, [sp, #68]	@ 0x44
    28e0:	3b01      	subs	r3, #1
    28e2:	2b00      	cmp	r3, #0
    28e4:	9311      	str	r3, [sp, #68]	@ 0x44
    28e6:	db1b      	blt.n	2920 <__vfprintf+0xa6c>
    28e8:	9b06      	ldr	r3, [sp, #24]
    28ea:	3701      	adds	r7, #1
    28ec:	4599      	cmp	r9, r3
    28ee:	9b07      	ldr	r3, [sp, #28]
    28f0:	eb75 0303 	sbcs.w	r3, r5, r3
    28f4:	da09      	bge.n	290a <__vfprintf+0xa56>
    28f6:	68b3      	ldr	r3, [r6, #8]
    28f8:	3b01      	subs	r3, #1
    28fa:	2b00      	cmp	r3, #0
    28fc:	60b3      	str	r3, [r6, #8]
    28fe:	db2e      	blt.n	295e <__vfprintf+0xaaa>
    2900:	6833      	ldr	r3, [r6, #0]
    2902:	1c5a      	adds	r2, r3, #1
    2904:	6032      	str	r2, [r6, #0]
    2906:	f883 a000 	strb.w	sl, [r3]
    290a:	f119 0901 	adds.w	r9, r9, #1
    290e:	f145 0500 	adc.w	r5, r5, #0
    2912:	e7e4      	b.n	28de <__vfprintf+0xa2a>
    2914:	46b9      	mov	r9, r7
    2916:	9b10      	ldr	r3, [sp, #64]	@ 0x40
    2918:	3b01      	subs	r3, #1
    291a:	2b00      	cmp	r3, #0
    291c:	9310      	str	r3, [sp, #64]	@ 0x40
    291e:	da03      	bge.n	2928 <__vfprintf+0xa74>
    2920:	9b0a      	ldr	r3, [sp, #40]	@ 0x28
    2922:	3301      	adds	r3, #1
    2924:	930a      	str	r3, [sp, #40]	@ 0x28
    2926:	e6c9      	b.n	26bc <__vfprintf+0x808>
    2928:	9b06      	ldr	r3, [sp, #24]
    292a:	3701      	adds	r7, #1
    292c:	4599      	cmp	r9, r3
    292e:	9b07      	ldr	r3, [sp, #28]
    2930:	eb75 0303 	sbcs.w	r3, r5, r3
    2934:	da09      	bge.n	294a <__vfprintf+0xa96>
    2936:	68b3      	ldr	r3, [r6, #8]
    2938:	3b01      	subs	r3, #1
    293a:	2b00      	cmp	r3, #0
    293c:	60b3      	str	r3, [r6, #8]
    293e:	db09      	blt.n	2954 <__vfprintf+0xaa0>
    2940:	6833      	ldr	r3, [r6, #0]
    2942:	1c5a      	adds	r2, r3, #1
    2944:	6032      	str	r2, [r6, #0]
    2946:	f883 a000 	strb.w	sl, [r3]
    294a:	f119 0901 	adds.w	r9, r9, #1
    294e:	f145 0500 	adc.w	r5, r5, #0
    2952:	e7e0      	b.n	2916 <__vfprintf+0xa62>
    2954:	4631      	mov	r1, r6
    2956:	2030      	movs	r0, #48	@ 0x30
    2958:	f001 fd3f 	bl	43da <__flsbuf>
    295c:	e7f5      	b.n	294a <__vfprintf+0xa96>
    295e:	4631      	mov	r1, r6
    2960:	2030      	movs	r0, #48	@ 0x30
    2962:	f001 fd3a 	bl	43da <__flsbuf>
    2966:	e7d0      	b.n	290a <__vfprintf+0xa56>
    2968:	9b06      	ldr	r3, [sp, #24]
    296a:	429f      	cmp	r7, r3
    296c:	9b07      	ldr	r3, [sp, #28]
    296e:	419d      	sbcs	r5, r3
    2970:	da08      	bge.n	2984 <__vfprintf+0xad0>
    2972:	68b3      	ldr	r3, [r6, #8]
    2974:	3b01      	subs	r3, #1
    2976:	2b00      	cmp	r3, #0
    2978:	60b3      	str	r3, [r6, #8]
    297a:	db05      	blt.n	2988 <__vfprintf+0xad4>
    297c:	6833      	ldr	r3, [r6, #0]
    297e:	1c5a      	adds	r2, r3, #1
    2980:	6032      	str	r2, [r6, #0]
    2982:	7018      	strb	r0, [r3, #0]
    2984:	3701      	adds	r7, #1
    2986:	e7cb      	b.n	2920 <__vfprintf+0xa6c>
    2988:	4631      	mov	r1, r6
    298a:	f001 fd26 	bl	43da <__flsbuf>
    298e:	e7f9      	b.n	2984 <__vfprintf+0xad0>
    2990:	9b06      	ldr	r3, [sp, #24]
    2992:	3701      	adds	r7, #1
    2994:	429d      	cmp	r5, r3
    2996:	9b07      	ldr	r3, [sp, #28]
    2998:	eb79 0303 	sbcs.w	r3, r9, r3
    299c:	da09      	bge.n	29b2 <__vfprintf+0xafe>
    299e:	68b3      	ldr	r3, [r6, #8]
    29a0:	3b01      	subs	r3, #1
    29a2:	2b00      	cmp	r3, #0
    29a4:	60b3      	str	r3, [r6, #8]
    29a6:	db08      	blt.n	29ba <__vfprintf+0xb06>
    29a8:	6833      	ldr	r3, [r6, #0]
    29aa:	1c5a      	adds	r2, r3, #1
    29ac:	6032      	str	r2, [r6, #0]
    29ae:	f883 a000 	strb.w	sl, [r3]
    29b2:	3501      	adds	r5, #1
    29b4:	f149 0900 	adc.w	r9, r9, #0
    29b8:	e775      	b.n	28a6 <__vfprintf+0x9f2>
    29ba:	4631      	mov	r1, r6
    29bc:	2030      	movs	r0, #48	@ 0x30
    29be:	f001 fd0c 	bl	43da <__flsbuf>
    29c2:	e7f6      	b.n	29b2 <__vfprintf+0xafe>
    29c4:	9b06      	ldr	r3, [sp, #24]
    29c6:	429d      	cmp	r5, r3
    29c8:	9b07      	ldr	r3, [sp, #28]
    29ca:	eb79 0303 	sbcs.w	r3, r9, r3
    29ce:	da0b      	bge.n	29e8 <__vfprintf+0xb34>
    29d0:	68b3      	ldr	r3, [r6, #8]
    29d2:	aa14      	add	r2, sp, #80	@ 0x50
    29d4:	3b01      	subs	r3, #1
    29d6:	2b00      	cmp	r3, #0
    29d8:	f812 000a 	ldrb.w	r0, [r2, sl]
    29dc:	60b3      	str	r3, [r6, #8]
    29de:	db08      	blt.n	29f2 <__vfprintf+0xb3e>
    29e0:	6833      	ldr	r3, [r6, #0]
    29e2:	1c5a      	adds	r2, r3, #1
    29e4:	6032      	str	r2, [r6, #0]
    29e6:	7018      	strb	r0, [r3, #0]
    29e8:	3501      	adds	r5, #1
    29ea:	4653      	mov	r3, sl
    29ec:	f149 0900 	adc.w	r9, r9, #0
    29f0:	e762      	b.n	28b8 <__vfprintf+0xa04>
    29f2:	4631      	mov	r1, r6
    29f4:	f001 fcf1 	bl	43da <__flsbuf>
    29f8:	e7f6      	b.n	29e8 <__vfprintf+0xb34>
    29fa:	9b06      	ldr	r3, [sp, #24]
    29fc:	429d      	cmp	r5, r3
    29fe:	9b07      	ldr	r3, [sp, #28]
    2a00:	eb7a 0303 	sbcs.w	r3, sl, r3
    2a04:	da09      	bge.n	2a1a <__vfprintf+0xb66>
    2a06:	68b3      	ldr	r3, [r6, #8]
    2a08:	3b01      	subs	r3, #1
    2a0a:	2b00      	cmp	r3, #0
    2a0c:	60b3      	str	r3, [r6, #8]
    2a0e:	db08      	blt.n	2a22 <__vfprintf+0xb6e>
    2a10:	6833      	ldr	r3, [r6, #0]
    2a12:	1c5a      	adds	r2, r3, #1
    2a14:	6032      	str	r2, [r6, #0]
    2a16:	f883 b000 	strb.w	fp, [r3]
    2a1a:	3501      	adds	r5, #1
    2a1c:	f14a 0a00 	adc.w	sl, sl, #0
    2a20:	e659      	b.n	26d6 <__vfprintf+0x822>
    2a22:	4631      	mov	r1, r6
    2a24:	2020      	movs	r0, #32
    2a26:	f001 fcd8 	bl	43da <__flsbuf>
    2a2a:	e7f6      	b.n	2a1a <__vfprintf+0xb66>

00002a2c <_vsnprintf>:
    2a2c:	b5f0      	push	{r4, r5, r6, r7, lr}
    2a2e:	460c      	mov	r4, r1
    2a30:	4616      	mov	r6, r2
    2a32:	461f      	mov	r7, r3
    2a34:	4605      	mov	r5, r0
    2a36:	b095      	sub	sp, #84	@ 0x54
    2a38:	b910      	cbnz	r0, 2a40 <_vsnprintf+0x14>
    2a3a:	bb31      	cbnz	r1, 2a8a <_vsnprintf+0x5e>
    2a3c:	2401      	movs	r4, #1
    2a3e:	ad04      	add	r5, sp, #16
    2a40:	223c      	movs	r2, #60	@ 0x3c
    2a42:	2100      	movs	r1, #0
    2a44:	a805      	add	r0, sp, #20
    2a46:	f001 fc24 	bl	4292 <memset>
    2a4a:	230a      	movs	r3, #10
    2a4c:	9308      	str	r3, [sp, #32]
    2a4e:	f06f 4300 	mvn.w	r3, #2147483648	@ 0x80000000
    2a52:	9505      	str	r5, [sp, #20]
    2a54:	2500      	movs	r5, #0
    2a56:	9307      	str	r3, [sp, #28]
    2a58:	4b0d      	ldr	r3, [pc, #52]	@ (2a90 <_vsnprintf+0x64>)
    2a5a:	1e62      	subs	r2, r4, #1
    2a5c:	e9cd 7301 	strd	r7, r3, [sp, #4]
    2a60:	9600      	str	r6, [sp, #0]
    2a62:	462b      	mov	r3, r5
    2a64:	a805      	add	r0, sp, #20
    2a66:	f7ff fa25 	bl	1eb4 <__vfprintf>
    2a6a:	9a07      	ldr	r2, [sp, #28]
    2a6c:	4604      	mov	r4, r0
    2a6e:	3a01      	subs	r2, #1
    2a70:	42aa      	cmp	r2, r5
    2a72:	9207      	str	r2, [sp, #28]
    2a74:	db04      	blt.n	2a80 <_vsnprintf+0x54>
    2a76:	9b05      	ldr	r3, [sp, #20]
    2a78:	701d      	strb	r5, [r3, #0]
    2a7a:	4620      	mov	r0, r4
    2a7c:	b015      	add	sp, #84	@ 0x54
    2a7e:	bdf0      	pop	{r4, r5, r6, r7, pc}
    2a80:	4628      	mov	r0, r5
    2a82:	a905      	add	r1, sp, #20
    2a84:	f001 fca9 	bl	43da <__flsbuf>
    2a88:	e7f7      	b.n	2a7a <_vsnprintf+0x4e>
    2a8a:	f04f 34ff 	mov.w	r4, #4294967295
    2a8e:	e7f4      	b.n	2a7a <_vsnprintf+0x4e>
    2a90:	000042c7 	.word	0x000042c7

00002a94 <_printf>:
    2a94:	b40f      	push	{r0, r1, r2, r3}
    2a96:	b573      	push	{r0, r1, r4, r5, r6, lr}
    2a98:	ab06      	add	r3, sp, #24
    2a9a:	f853 6b04 	ldr.w	r6, [r3], #4
    2a9e:	2101      	movs	r1, #1
    2aa0:	4632      	mov	r2, r6
    2aa2:	4668      	mov	r0, sp
    2aa4:	9301      	str	r3, [sp, #4]
    2aa6:	f7ff ffc1 	bl	2a2c <_vsnprintf>
    2aaa:	1e04      	subs	r4, r0, #0
    2aac:	dd13      	ble.n	2ad6 <_printf+0x42>
    2aae:	1c65      	adds	r5, r4, #1
    2ab0:	4628      	mov	r0, r5
    2ab2:	f7ff f93f 	bl	1d34 <malloc>
    2ab6:	9000      	str	r0, [sp, #0]
    2ab8:	b168      	cbz	r0, 2ad6 <_printf+0x42>
    2aba:	4632      	mov	r2, r6
    2abc:	4629      	mov	r1, r5
    2abe:	9b01      	ldr	r3, [sp, #4]
    2ac0:	f7ff ffb4 	bl	2a2c <_vsnprintf>
    2ac4:	4b07      	ldr	r3, [pc, #28]	@ (2ae4 <_printf+0x50>)
    2ac6:	4622      	mov	r2, r4
    2ac8:	9900      	ldr	r1, [sp, #0]
    2aca:	6d18      	ldr	r0, [r3, #80]	@ 0x50
    2acc:	f001 fe3d 	bl	474a <__sys_write>
    2ad0:	9800      	ldr	r0, [sp, #0]
    2ad2:	f001 fbe0 	bl	4296 <free>
    2ad6:	4620      	mov	r0, r4
    2ad8:	b002      	add	sp, #8
    2ada:	e8bd 4070 	ldmia.w	sp!, {r4, r5, r6, lr}
    2ade:	b004      	add	sp, #16
    2ae0:	4770      	bx	lr
    2ae2:	bf00      	nop
    2ae4:	20000298 	.word	0x20000298

00002ae8 <_sbrk>:
    2ae8:	b570      	push	{r4, r5, r6, lr}
    2aea:	4d0b      	ldr	r5, [pc, #44]	@ (2b18 <_sbrk+0x30>)
    2aec:	682b      	ldr	r3, [r5, #0]
    2aee:	b90b      	cbnz	r3, 2af4 <_sbrk+0xc>
    2af0:	4b0a      	ldr	r3, [pc, #40]	@ (2b1c <_sbrk+0x34>)
    2af2:	602b      	str	r3, [r5, #0]
    2af4:	1cc4      	adds	r4, r0, #3
    2af6:	682e      	ldr	r6, [r5, #0]
    2af8:	f024 0403 	bic.w	r4, r4, #3
    2afc:	4434      	add	r4, r6
    2afe:	4620      	mov	r0, r4
    2b00:	f000 f902 	bl	2d08 <__check_heap_overflow>
    2b04:	b910      	cbnz	r0, 2b0c <_sbrk+0x24>
    2b06:	602c      	str	r4, [r5, #0]
    2b08:	4630      	mov	r0, r6
    2b0a:	bd70      	pop	{r4, r5, r6, pc}
    2b0c:	220c      	movs	r2, #12
    2b0e:	4b04      	ldr	r3, [pc, #16]	@ (2b20 <_sbrk+0x38>)
    2b10:	f04f 36ff 	mov.w	r6, #4294967295
    2b14:	601a      	str	r2, [r3, #0]
    2b16:	e7f7      	b.n	2b08 <_sbrk+0x20>
    2b18:	20000290 	.word	0x20000290
    2b1c:	20000350 	.word	0x20000350
    2b20:	2000028c 	.word	0x2000028c

00002b24 <_Cwritebuf>:
    2b24:	e92d 41f0 	stmdb	sp!, {r4, r5, r6, r7, r8, lr}
    2b28:	68d5      	ldr	r5, [r2, #12]
    2b2a:	4680      	mov	r8, r0
    2b2c:	02eb      	lsls	r3, r5, #11
    2b2e:	460e      	mov	r6, r1
    2b30:	4614      	mov	r4, r2
    2b32:	6957      	ldr	r7, [r2, #20]
    2b34:	d505      	bpl.n	2b42 <_Cwritebuf+0x1e>
    2b36:	4638      	mov	r0, r7
    2b38:	f001 fdf8 	bl	472c <__sys_flen>
    2b3c:	f045 0510 	orr.w	r5, r5, #16
    2b40:	61a0      	str	r0, [r4, #24]
    2b42:	4b12      	ldr	r3, [pc, #72]	@ (2b8c <_Cwritebuf+0x68>)
    2b44:	402b      	ands	r3, r5
    2b46:	b18b      	cbz	r3, 2b6c <_Cwritebuf+0x48>
    2b48:	4638      	mov	r0, r7
    2b4a:	69a1      	ldr	r1, [r4, #24]
    2b4c:	f001 fdf7 	bl	473e <__sys_seek>
    2b50:	2800      	cmp	r0, #0
    2b52:	da06      	bge.n	2b62 <_Cwritebuf+0x3e>
    2b54:	68e3      	ldr	r3, [r4, #12]
    2b56:	f04f 30ff 	mov.w	r0, #4294967295
    2b5a:	f043 0380 	orr.w	r3, r3, #128	@ 0x80
    2b5e:	60e3      	str	r3, [r4, #12]
    2b60:	e011      	b.n	2b86 <_Cwritebuf+0x62>
    2b62:	f425 3500 	bic.w	r5, r5, #131072	@ 0x20000
    2b66:	f025 0510 	bic.w	r5, r5, #16
    2b6a:	60e5      	str	r5, [r4, #12]
    2b6c:	4632      	mov	r2, r6
    2b6e:	4641      	mov	r1, r8
    2b70:	4638      	mov	r0, r7
    2b72:	f001 fdea 	bl	474a <__sys_write>
    2b76:	f020 4300 	bic.w	r3, r0, #2147483648	@ 0x80000000
    2b7a:	1af6      	subs	r6, r6, r3
    2b7c:	69a3      	ldr	r3, [r4, #24]
    2b7e:	4433      	add	r3, r6
    2b80:	61a3      	str	r3, [r4, #24]
    2b82:	2800      	cmp	r0, #0
    2b84:	d1e6      	bne.n	2b54 <_Cwritebuf+0x30>
    2b86:	e8bd 81f0 	ldmia.w	sp!, {r4, r5, r6, r7, r8, pc}
    2b8a:	bf00      	nop
    2b8c:	00020010 	.word	0x00020010

00002b90 <fflush>:
    2b90:	b5f8      	push	{r3, r4, r5, r6, r7, lr}
    2b92:	4604      	mov	r4, r0
    2b94:	b938      	cbnz	r0, 2ba6 <fflush+0x16>
    2b96:	4605      	mov	r5, r0
    2b98:	4b0a      	ldr	r3, [pc, #40]	@ (2bc4 <fflush+0x34>)
    2b9a:	4e0b      	ldr	r6, [pc, #44]	@ (2bc8 <fflush+0x38>)
    2b9c:	681f      	ldr	r7, [r3, #0]
    2b9e:	42a7      	cmp	r7, r4
    2ba0:	dc05      	bgt.n	2bae <fflush+0x1e>
    2ba2:	4628      	mov	r0, r5
    2ba4:	bdf8      	pop	{r3, r4, r5, r6, r7, pc}
    2ba6:	e8bd 40f8 	ldmia.w	sp!, {r3, r4, r5, r6, r7, lr}
    2baa:	f001 bd49 	b.w	4640 <_do_fflush>
    2bae:	4630      	mov	r0, r6
    2bb0:	f001 fd46 	bl	4640 <_do_fflush>
    2bb4:	2800      	cmp	r0, #0
    2bb6:	bf18      	it	ne
    2bb8:	f04f 35ff 	movne.w	r5, #4294967295
    2bbc:	3401      	adds	r4, #1
    2bbe:	363c      	adds	r6, #60	@ 0x3c
    2bc0:	e7ed      	b.n	2b9e <fflush+0xe>
    2bc2:	bf00      	nop
    2bc4:	00004f9c 	.word	0x00004f9c
    2bc8:	20000298 	.word	0x20000298

00002bcc <fseek>:
    2bcc:	e92d 43f8 	stmdb	sp!, {r3, r4, r5, r6, r7, r8, r9, lr}
    2bd0:	68c6      	ldr	r6, [r0, #12]
    2bd2:	4b3b      	ldr	r3, [pc, #236]	@ (2cc0 <fseek+0xf4>)
    2bd4:	4604      	mov	r4, r0
    2bd6:	4033      	ands	r3, r6
    2bd8:	460d      	mov	r5, r1
    2bda:	4690      	mov	r8, r2
    2bdc:	f8d0 9014 	ldr.w	r9, [r0, #20]
    2be0:	b16b      	cbz	r3, 2bfe <fseek+0x32>
    2be2:	4648      	mov	r0, r9
    2be4:	f001 fda5 	bl	4732 <__sys_istty>
    2be8:	4607      	mov	r7, r0
    2bea:	b940      	cbnz	r0, 2bfe <fseek+0x32>
    2bec:	f1b8 0f01 	cmp.w	r8, #1
    2bf0:	d009      	beq.n	2c06 <fseek+0x3a>
    2bf2:	f1b8 0f02 	cmp.w	r8, #2
    2bf6:	d031      	beq.n	2c5c <fseek+0x90>
    2bf8:	f1b8 0f00 	cmp.w	r8, #0
    2bfc:	d007      	beq.n	2c0e <fseek+0x42>
    2bfe:	2702      	movs	r7, #2
    2c00:	4638      	mov	r0, r7
    2c02:	e8bd 83f8 	ldmia.w	sp!, {r3, r4, r5, r6, r7, r8, r9, pc}
    2c06:	4620      	mov	r0, r4
    2c08:	f000 f85c 	bl	2cc4 <ftell>
    2c0c:	4405      	add	r5, r0
    2c0e:	2d00      	cmp	r5, #0
    2c10:	dbf5      	blt.n	2bfe <fseek+0x32>
    2c12:	04b3      	lsls	r3, r6, #18
    2c14:	d504      	bpl.n	2c20 <fseek+0x54>
    2c16:	6823      	ldr	r3, [r4, #0]
    2c18:	6ae2      	ldr	r2, [r4, #44]	@ 0x2c
    2c1a:	429a      	cmp	r2, r3
    2c1c:	bf38      	it	cc
    2c1e:	62e3      	strcc	r3, [r4, #44]	@ 0x2c
    2c20:	69a0      	ldr	r0, [r4, #24]
    2c22:	42a8      	cmp	r0, r5
    2c24:	dc0e      	bgt.n	2c44 <fseek+0x78>
    2c26:	6823      	ldr	r3, [r4, #0]
    2c28:	6ae2      	ldr	r2, [r4, #44]	@ 0x2c
    2c2a:	4293      	cmp	r3, r2
    2c2c:	bf38      	it	cc
    2c2e:	4613      	movcc	r3, r2
    2c30:	6922      	ldr	r2, [r4, #16]
    2c32:	1819      	adds	r1, r3, r0
    2c34:	1a89      	subs	r1, r1, r2
    2c36:	42a9      	cmp	r1, r5
    2c38:	db04      	blt.n	2c44 <fseek+0x78>
    2c3a:	6b21      	ldr	r1, [r4, #48]	@ 0x30
    2c3c:	eb00 0c01 	add.w	ip, r0, r1
    2c40:	45ac      	cmp	ip, r5
    2c42:	dc2c      	bgt.n	2c9e <fseek+0xd2>
    2c44:	2300      	movs	r3, #0
    2c46:	e9c4 3301 	strd	r3, r3, [r4, #4]
    2c4a:	f046 0620 	orr.w	r6, r6, #32
    2c4e:	62a5      	str	r5, [r4, #40]	@ 0x28
    2c50:	f426 2603 	bic.w	r6, r6, #536576	@ 0x83000
    2c54:	f026 0640 	bic.w	r6, r6, #64	@ 0x40
    2c58:	60e6      	str	r6, [r4, #12]
    2c5a:	e7d1      	b.n	2c00 <fseek+0x34>
    2c5c:	4648      	mov	r0, r9
    2c5e:	f001 fd65 	bl	472c <__sys_flen>
    2c62:	f1b0 0c00 	subs.w	ip, r0, #0
    2c66:	68e2      	ldr	r2, [r4, #12]
    2c68:	da04      	bge.n	2c74 <fseek+0xa8>
    2c6a:	f042 0280 	orr.w	r2, r2, #128	@ 0x80
    2c6e:	2701      	movs	r7, #1
    2c70:	60e2      	str	r2, [r4, #12]
    2c72:	e7c5      	b.n	2c00 <fseek+0x34>
    2c74:	6821      	ldr	r1, [r4, #0]
    2c76:	69a3      	ldr	r3, [r4, #24]
    2c78:	6ae0      	ldr	r0, [r4, #44]	@ 0x2c
    2c7a:	4281      	cmp	r1, r0
    2c7c:	bf2c      	ite	cs
    2c7e:	185b      	addcs	r3, r3, r1
    2c80:	181b      	addcc	r3, r3, r0
    2c82:	6921      	ldr	r1, [r4, #16]
    2c84:	0692      	lsls	r2, r2, #26
    2c86:	eba3 0301 	sub.w	r3, r3, r1
    2c8a:	d503      	bpl.n	2c94 <fseek+0xc8>
    2c8c:	6aa2      	ldr	r2, [r4, #40]	@ 0x28
    2c8e:	4293      	cmp	r3, r2
    2c90:	bfb8      	it	lt
    2c92:	4613      	movlt	r3, r2
    2c94:	4563      	cmp	r3, ip
    2c96:	bfac      	ite	ge
    2c98:	18ed      	addge	r5, r5, r3
    2c9a:	4465      	addlt	r5, ip
    2c9c:	e7b7      	b.n	2c0e <fseek+0x42>
    2c9e:	1a2d      	subs	r5, r5, r0
    2ca0:	07b0      	lsls	r0, r6, #30
    2ca2:	bf44      	itt	mi
    2ca4:	1a69      	submi	r1, r5, r1
    2ca6:	60a1      	strmi	r1, [r4, #8]
    2ca8:	07f1      	lsls	r1, r6, #31
    2caa:	bf44      	itt	mi
    2cac:	1a9b      	submi	r3, r3, r2
    2cae:	1aeb      	submi	r3, r5, r3
    2cb0:	442a      	add	r2, r5
    2cb2:	bf48      	it	mi
    2cb4:	6063      	strmi	r3, [r4, #4]
    2cb6:	6022      	str	r2, [r4, #0]
    2cb8:	f026 0620 	bic.w	r6, r6, #32
    2cbc:	e7c8      	b.n	2c50 <fseek+0x84>
    2cbe:	bf00      	nop
    2cc0:	00100003 	.word	0x00100003

00002cc4 <ftell>:
    2cc4:	68c3      	ldr	r3, [r0, #12]
    2cc6:	079a      	lsls	r2, r3, #30
    2cc8:	d105      	bne.n	2cd6 <ftell+0x12>
    2cca:	2221      	movs	r2, #33	@ 0x21
    2ccc:	4b0d      	ldr	r3, [pc, #52]	@ (2d04 <ftell+0x40>)
    2cce:	f04f 30ff 	mov.w	r0, #4294967295
    2cd2:	601a      	str	r2, [r3, #0]
    2cd4:	4770      	bx	lr
    2cd6:	f003 0220 	and.w	r2, r3, #32
    2cda:	031b      	lsls	r3, r3, #12
    2cdc:	d509      	bpl.n	2cf2 <ftell+0x2e>
    2cde:	b112      	cbz	r2, 2ce6 <ftell+0x22>
    2ce0:	6a80      	ldr	r0, [r0, #40]	@ 0x28
    2ce2:	3801      	subs	r0, #1
    2ce4:	4770      	bx	lr
    2ce6:	6803      	ldr	r3, [r0, #0]
    2ce8:	6982      	ldr	r2, [r0, #24]
    2cea:	6900      	ldr	r0, [r0, #16]
    2cec:	4413      	add	r3, r2
    2cee:	1a18      	subs	r0, r3, r0
    2cf0:	e7f7      	b.n	2ce2 <ftell+0x1e>
    2cf2:	b10a      	cbz	r2, 2cf8 <ftell+0x34>
    2cf4:	6a80      	ldr	r0, [r0, #40]	@ 0x28
    2cf6:	4770      	bx	lr
    2cf8:	6803      	ldr	r3, [r0, #0]
    2cfa:	6982      	ldr	r2, [r0, #24]
    2cfc:	6900      	ldr	r0, [r0, #16]
    2cfe:	4413      	add	r3, r2
    2d00:	1a18      	subs	r0, r3, r0
    2d02:	4770      	bx	lr
    2d04:	2000028c 	.word	0x2000028c

00002d08 <__check_heap_overflow>:
    2d08:	4b04      	ldr	r3, [pc, #16]	@ (2d1c <__check_heap_overflow+0x14>)
    2d0a:	b123      	cbz	r3, 2d16 <__check_heap_overflow+0xe>
    2d0c:	4298      	cmp	r0, r3
    2d0e:	bf34      	ite	cc
    2d10:	2000      	movcc	r0, #0
    2d12:	2001      	movcs	r0, #1
    2d14:	4770      	bx	lr
    2d16:	4618      	mov	r0, r3
    2d18:	4770      	bx	lr
    2d1a:	bf00      	nop
    2d1c:	20001350 	.word	0x20001350

00002d20 <DbgConsole_PrintCallback>:
    2d20:	b580      	push	{r7, lr}
    2d22:	b086      	sub	sp, #24
    2d24:	af00      	add	r7, sp, #0
    2d26:	60f8      	str	r0, [r7, #12]
    2d28:	60b9      	str	r1, [r7, #8]
    2d2a:	603b      	str	r3, [r7, #0]
    2d2c:	4613      	mov	r3, r2
    2d2e:	71fb      	strb	r3, [r7, #7]
    2d30:	2300      	movs	r3, #0
    2d32:	617b      	str	r3, [r7, #20]
    2d34:	2300      	movs	r3, #0
    2d36:	617b      	str	r3, [r7, #20]
    2d38:	e01c      	b.n	2d74 <DbgConsole_PrintCallback+0x54>
    2d3a:	68bb      	ldr	r3, [r7, #8]
    2d3c:	681b      	ldr	r3, [r3, #0]
    2d3e:	3301      	adds	r3, #1
    2d40:	2b7f      	cmp	r3, #127	@ 0x7f
    2d42:	d908      	bls.n	2d56 <DbgConsole_PrintCallback+0x36>
    2d44:	68bb      	ldr	r3, [r7, #8]
    2d46:	681b      	ldr	r3, [r3, #0]
    2d48:	4619      	mov	r1, r3
    2d4a:	68f8      	ldr	r0, [r7, #12]
    2d4c:	f7fd fb3c 	bl	3c8 <DbgConsole_SendDataReliable>
    2d50:	68bb      	ldr	r3, [r7, #8]
    2d52:	2200      	movs	r2, #0
    2d54:	601a      	str	r2, [r3, #0]
    2d56:	68bb      	ldr	r3, [r7, #8]
    2d58:	681b      	ldr	r3, [r3, #0]
    2d5a:	461a      	mov	r2, r3
    2d5c:	68fb      	ldr	r3, [r7, #12]
    2d5e:	4413      	add	r3, r2
    2d60:	79fa      	ldrb	r2, [r7, #7]
    2d62:	701a      	strb	r2, [r3, #0]
    2d64:	68bb      	ldr	r3, [r7, #8]
    2d66:	681b      	ldr	r3, [r3, #0]
    2d68:	1c5a      	adds	r2, r3, #1
    2d6a:	68bb      	ldr	r3, [r7, #8]
    2d6c:	601a      	str	r2, [r3, #0]
    2d6e:	697b      	ldr	r3, [r7, #20]
    2d70:	3301      	adds	r3, #1
    2d72:	617b      	str	r3, [r7, #20]
    2d74:	697a      	ldr	r2, [r7, #20]
    2d76:	683b      	ldr	r3, [r7, #0]
    2d78:	429a      	cmp	r2, r3
    2d7a:	dbde      	blt.n	2d3a <DbgConsole_PrintCallback+0x1a>
    2d7c:	bf00      	nop
    2d7e:	bf00      	nop
    2d80:	3718      	adds	r7, #24
    2d82:	46bd      	mov	sp, r7
    2d84:	bd80      	pop	{r7, pc}

00002d86 <DbgConsole_Printf>:
    2d86:	b40f      	push	{r0, r1, r2, r3}
    2d88:	b580      	push	{r7, lr}
    2d8a:	b082      	sub	sp, #8
    2d8c:	af00      	add	r7, sp, #0
    2d8e:	2300      	movs	r3, #0
    2d90:	607b      	str	r3, [r7, #4]
    2d92:	f107 0314 	add.w	r3, r7, #20
    2d96:	603b      	str	r3, [r7, #0]
    2d98:	6839      	ldr	r1, [r7, #0]
    2d9a:	6938      	ldr	r0, [r7, #16]
    2d9c:	f7fd fbda 	bl	554 <DbgConsole_Vprintf>
    2da0:	6078      	str	r0, [r7, #4]
    2da2:	687b      	ldr	r3, [r7, #4]
    2da4:	4618      	mov	r0, r3
    2da6:	3708      	adds	r7, #8
    2da8:	46bd      	mov	sp, r7
    2daa:	e8bd 4080 	ldmia.w	sp!, {r7, lr}
    2dae:	b004      	add	sp, #16
    2db0:	4770      	bx	lr

00002db2 <PrintGetWidth>:
    2db2:	b480      	push	{r7}
    2db4:	b085      	sub	sp, #20
    2db6:	af00      	add	r7, sp, #0
    2db8:	6078      	str	r0, [r7, #4]
    2dba:	6039      	str	r1, [r7, #0]
    2dbc:	2300      	movs	r3, #0
    2dbe:	60fb      	str	r3, [r7, #12]
    2dc0:	2300      	movs	r3, #0
    2dc2:	72fb      	strb	r3, [r7, #11]
    2dc4:	e020      	b.n	2e08 <PrintGetWidth+0x56>
    2dc6:	687b      	ldr	r3, [r7, #4]
    2dc8:	681b      	ldr	r3, [r3, #0]
    2dca:	1c5a      	adds	r2, r3, #1
    2dcc:	687b      	ldr	r3, [r7, #4]
    2dce:	601a      	str	r2, [r3, #0]
    2dd0:	687b      	ldr	r3, [r7, #4]
    2dd2:	681b      	ldr	r3, [r3, #0]
    2dd4:	781b      	ldrb	r3, [r3, #0]
    2dd6:	72bb      	strb	r3, [r7, #10]
    2dd8:	7abb      	ldrb	r3, [r7, #10]
    2dda:	2b2f      	cmp	r3, #47	@ 0x2f
    2ddc:	d90d      	bls.n	2dfa <PrintGetWidth+0x48>
    2dde:	7abb      	ldrb	r3, [r7, #10]
    2de0:	2b39      	cmp	r3, #57	@ 0x39
    2de2:	d80a      	bhi.n	2dfa <PrintGetWidth+0x48>
    2de4:	68fa      	ldr	r2, [r7, #12]
    2de6:	4613      	mov	r3, r2
    2de8:	009b      	lsls	r3, r3, #2
    2dea:	4413      	add	r3, r2
    2dec:	005b      	lsls	r3, r3, #1
    2dee:	461a      	mov	r2, r3
    2df0:	7abb      	ldrb	r3, [r7, #10]
    2df2:	4413      	add	r3, r2
    2df4:	3b30      	subs	r3, #48	@ 0x30
    2df6:	60fb      	str	r3, [r7, #12]
    2df8:	e006      	b.n	2e08 <PrintGetWidth+0x56>
    2dfa:	687b      	ldr	r3, [r7, #4]
    2dfc:	681b      	ldr	r3, [r3, #0]
    2dfe:	1e5a      	subs	r2, r3, #1
    2e00:	687b      	ldr	r3, [r7, #4]
    2e02:	601a      	str	r2, [r3, #0]
    2e04:	2301      	movs	r3, #1
    2e06:	72fb      	strb	r3, [r7, #11]
    2e08:	7afb      	ldrb	r3, [r7, #11]
    2e0a:	2b00      	cmp	r3, #0
    2e0c:	d0db      	beq.n	2dc6 <PrintGetWidth+0x14>
    2e0e:	68fb      	ldr	r3, [r7, #12]
    2e10:	4618      	mov	r0, r3
    2e12:	3714      	adds	r7, #20
    2e14:	46bd      	mov	sp, r7
    2e16:	f85d 7b04 	ldr.w	r7, [sp], #4
    2e1a:	4770      	bx	lr

00002e1c <PrintGetPrecision>:
    2e1c:	b480      	push	{r7}
    2e1e:	b089      	sub	sp, #36	@ 0x24
    2e20:	af00      	add	r7, sp, #0
    2e22:	60f8      	str	r0, [r7, #12]
    2e24:	60b9      	str	r1, [r7, #8]
    2e26:	607a      	str	r2, [r7, #4]
    2e28:	68fb      	ldr	r3, [r7, #12]
    2e2a:	681b      	ldr	r3, [r3, #0]
    2e2c:	61fb      	str	r3, [r7, #28]
    2e2e:	2306      	movs	r3, #6
    2e30:	61bb      	str	r3, [r7, #24]
    2e32:	2300      	movs	r3, #0
    2e34:	75fb      	strb	r3, [r7, #23]
    2e36:	69fb      	ldr	r3, [r7, #28]
    2e38:	3301      	adds	r3, #1
    2e3a:	61fb      	str	r3, [r7, #28]
    2e3c:	69fb      	ldr	r3, [r7, #28]
    2e3e:	781b      	ldrb	r3, [r3, #0]
    2e40:	2b2e      	cmp	r3, #46	@ 0x2e
    2e42:	d124      	bne.n	2e8e <PrintGetPrecision+0x72>
    2e44:	2300      	movs	r3, #0
    2e46:	61bb      	str	r3, [r7, #24]
    2e48:	2300      	movs	r3, #0
    2e4a:	75fb      	strb	r3, [r7, #23]
    2e4c:	e01b      	b.n	2e86 <PrintGetPrecision+0x6a>
    2e4e:	69fb      	ldr	r3, [r7, #28]
    2e50:	3301      	adds	r3, #1
    2e52:	61fb      	str	r3, [r7, #28]
    2e54:	69fb      	ldr	r3, [r7, #28]
    2e56:	781b      	ldrb	r3, [r3, #0]
    2e58:	75bb      	strb	r3, [r7, #22]
    2e5a:	7dbb      	ldrb	r3, [r7, #22]
    2e5c:	2b2f      	cmp	r3, #47	@ 0x2f
    2e5e:	d90d      	bls.n	2e7c <PrintGetPrecision+0x60>
    2e60:	7dbb      	ldrb	r3, [r7, #22]
    2e62:	2b39      	cmp	r3, #57	@ 0x39
    2e64:	d80a      	bhi.n	2e7c <PrintGetPrecision+0x60>
    2e66:	69ba      	ldr	r2, [r7, #24]
    2e68:	4613      	mov	r3, r2
    2e6a:	009b      	lsls	r3, r3, #2
    2e6c:	4413      	add	r3, r2
    2e6e:	005b      	lsls	r3, r3, #1
    2e70:	461a      	mov	r2, r3
    2e72:	7dbb      	ldrb	r3, [r7, #22]
    2e74:	4413      	add	r3, r2
    2e76:	3b30      	subs	r3, #48	@ 0x30
    2e78:	61bb      	str	r3, [r7, #24]
    2e7a:	e004      	b.n	2e86 <PrintGetPrecision+0x6a>
    2e7c:	69fb      	ldr	r3, [r7, #28]
    2e7e:	3b01      	subs	r3, #1
    2e80:	61fb      	str	r3, [r7, #28]
    2e82:	2301      	movs	r3, #1
    2e84:	75fb      	strb	r3, [r7, #23]
    2e86:	7dfb      	ldrb	r3, [r7, #23]
    2e88:	2b00      	cmp	r3, #0
    2e8a:	d0e0      	beq.n	2e4e <PrintGetPrecision+0x32>
    2e8c:	e002      	b.n	2e94 <PrintGetPrecision+0x78>
    2e8e:	69fb      	ldr	r3, [r7, #28]
    2e90:	3b01      	subs	r3, #1
    2e92:	61fb      	str	r3, [r7, #28]
    2e94:	68fb      	ldr	r3, [r7, #12]
    2e96:	69fa      	ldr	r2, [r7, #28]
    2e98:	601a      	str	r2, [r3, #0]
    2e9a:	69bb      	ldr	r3, [r7, #24]
    2e9c:	4618      	mov	r0, r3
    2e9e:	3724      	adds	r7, #36	@ 0x24
    2ea0:	46bd      	mov	sp, r7
    2ea2:	f85d 7b04 	ldr.w	r7, [sp], #4
    2ea6:	4770      	bx	lr

00002ea8 <PrintIsobpu>:
    2ea8:	b480      	push	{r7}
    2eaa:	b085      	sub	sp, #20
    2eac:	af00      	add	r7, sp, #0
    2eae:	4603      	mov	r3, r0
    2eb0:	71fb      	strb	r3, [r7, #7]
    2eb2:	2300      	movs	r3, #0
    2eb4:	60fb      	str	r3, [r7, #12]
    2eb6:	79fb      	ldrb	r3, [r7, #7]
    2eb8:	2b6f      	cmp	r3, #111	@ 0x6f
    2eba:	d008      	beq.n	2ece <PrintIsobpu+0x26>
    2ebc:	79fb      	ldrb	r3, [r7, #7]
    2ebe:	2b62      	cmp	r3, #98	@ 0x62
    2ec0:	d005      	beq.n	2ece <PrintIsobpu+0x26>
    2ec2:	79fb      	ldrb	r3, [r7, #7]
    2ec4:	2b70      	cmp	r3, #112	@ 0x70
    2ec6:	d002      	beq.n	2ece <PrintIsobpu+0x26>
    2ec8:	79fb      	ldrb	r3, [r7, #7]
    2eca:	2b75      	cmp	r3, #117	@ 0x75
    2ecc:	d101      	bne.n	2ed2 <PrintIsobpu+0x2a>
    2ece:	2301      	movs	r3, #1
    2ed0:	60fb      	str	r3, [r7, #12]
    2ed2:	68fb      	ldr	r3, [r7, #12]
    2ed4:	4618      	mov	r0, r3
    2ed6:	3714      	adds	r7, #20
    2ed8:	46bd      	mov	sp, r7
    2eda:	f85d 7b04 	ldr.w	r7, [sp], #4
    2ede:	4770      	bx	lr

00002ee0 <PrintIsdi>:
    2ee0:	b480      	push	{r7}
    2ee2:	b085      	sub	sp, #20
    2ee4:	af00      	add	r7, sp, #0
    2ee6:	4603      	mov	r3, r0
    2ee8:	71fb      	strb	r3, [r7, #7]
    2eea:	2300      	movs	r3, #0
    2eec:	60fb      	str	r3, [r7, #12]
    2eee:	79fb      	ldrb	r3, [r7, #7]
    2ef0:	2b64      	cmp	r3, #100	@ 0x64
    2ef2:	d002      	beq.n	2efa <PrintIsdi+0x1a>
    2ef4:	79fb      	ldrb	r3, [r7, #7]
    2ef6:	2b69      	cmp	r3, #105	@ 0x69
    2ef8:	d101      	bne.n	2efe <PrintIsdi+0x1e>
    2efa:	2301      	movs	r3, #1
    2efc:	60fb      	str	r3, [r7, #12]
    2efe:	68fb      	ldr	r3, [r7, #12]
    2f00:	4618      	mov	r0, r3
    2f02:	3714      	adds	r7, #20
    2f04:	46bd      	mov	sp, r7
    2f06:	f85d 7b04 	ldr.w	r7, [sp], #4
    2f0a:	4770      	bx	lr

00002f0c <PrintOutputdifFobpu>:
    2f0c:	b590      	push	{r4, r7, lr}
    2f0e:	b085      	sub	sp, #20
    2f10:	af00      	add	r7, sp, #0
    2f12:	60f8      	str	r0, [r7, #12]
    2f14:	60b9      	str	r1, [r7, #8]
    2f16:	607a      	str	r2, [r7, #4]
    2f18:	70fb      	strb	r3, [r7, #3]
    2f1a:	68ba      	ldr	r2, [r7, #8]
    2f1c:	687b      	ldr	r3, [r7, #4]
    2f1e:	1ad3      	subs	r3, r2, r3
    2f20:	6a7c      	ldr	r4, [r7, #36]	@ 0x24
    2f22:	2220      	movs	r2, #32
    2f24:	6af9      	ldr	r1, [r7, #44]	@ 0x2c
    2f26:	6ab8      	ldr	r0, [r7, #40]	@ 0x28
    2f28:	47a0      	blx	r4
    2f2a:	e008      	b.n	2f3e <PrintOutputdifFobpu+0x32>
    2f2c:	6a3b      	ldr	r3, [r7, #32]
    2f2e:	1e5a      	subs	r2, r3, #1
    2f30:	623a      	str	r2, [r7, #32]
    2f32:	781a      	ldrb	r2, [r3, #0]
    2f34:	6a7c      	ldr	r4, [r7, #36]	@ 0x24
    2f36:	2301      	movs	r3, #1
    2f38:	6af9      	ldr	r1, [r7, #44]	@ 0x2c
    2f3a:	6ab8      	ldr	r0, [r7, #40]	@ 0x28
    2f3c:	47a0      	blx	r4
    2f3e:	6a3b      	ldr	r3, [r7, #32]
    2f40:	781b      	ldrb	r3, [r3, #0]
    2f42:	2b00      	cmp	r3, #0
    2f44:	d1f2      	bne.n	2f2c <PrintOutputdifFobpu+0x20>
    2f46:	bf00      	nop
    2f48:	bf00      	nop
    2f4a:	3714      	adds	r7, #20
    2f4c:	46bd      	mov	sp, r7
    2f4e:	bd90      	pop	{r4, r7, pc}

00002f50 <PrintOutputxX>:
    2f50:	b590      	push	{r4, r7, lr}
    2f52:	b085      	sub	sp, #20
    2f54:	af00      	add	r7, sp, #0
    2f56:	60f8      	str	r0, [r7, #12]
    2f58:	60b9      	str	r1, [r7, #8]
    2f5a:	607a      	str	r2, [r7, #4]
    2f5c:	70fb      	strb	r3, [r7, #3]
    2f5e:	68ba      	ldr	r2, [r7, #8]
    2f60:	687b      	ldr	r3, [r7, #4]
    2f62:	1ad3      	subs	r3, r2, r3
    2f64:	6a7c      	ldr	r4, [r7, #36]	@ 0x24
    2f66:	2220      	movs	r2, #32
    2f68:	6af9      	ldr	r1, [r7, #44]	@ 0x2c
    2f6a:	6ab8      	ldr	r0, [r7, #40]	@ 0x28
    2f6c:	47a0      	blx	r4
    2f6e:	e008      	b.n	2f82 <PrintOutputxX+0x32>
    2f70:	6a3b      	ldr	r3, [r7, #32]
    2f72:	1e5a      	subs	r2, r3, #1
    2f74:	623a      	str	r2, [r7, #32]
    2f76:	781a      	ldrb	r2, [r3, #0]
    2f78:	6a7c      	ldr	r4, [r7, #36]	@ 0x24
    2f7a:	2301      	movs	r3, #1
    2f7c:	6af9      	ldr	r1, [r7, #44]	@ 0x2c
    2f7e:	6ab8      	ldr	r0, [r7, #40]	@ 0x28
    2f80:	47a0      	blx	r4
    2f82:	6a3b      	ldr	r3, [r7, #32]
    2f84:	781b      	ldrb	r3, [r3, #0]
    2f86:	2b00      	cmp	r3, #0
    2f88:	d1f2      	bne.n	2f70 <PrintOutputxX+0x20>
    2f8a:	bf00      	nop
    2f8c:	bf00      	nop
    2f8e:	3714      	adds	r7, #20
    2f90:	46bd      	mov	sp, r7
    2f92:	bd90      	pop	{r4, r7, pc}

00002f94 <PrintIsfF>:
    2f94:	b480      	push	{r7}
    2f96:	b085      	sub	sp, #20
    2f98:	af00      	add	r7, sp, #0
    2f9a:	4603      	mov	r3, r0
    2f9c:	71fb      	strb	r3, [r7, #7]
    2f9e:	2300      	movs	r3, #0
    2fa0:	60fb      	str	r3, [r7, #12]
    2fa2:	79fb      	ldrb	r3, [r7, #7]
    2fa4:	2b66      	cmp	r3, #102	@ 0x66
    2fa6:	d002      	beq.n	2fae <PrintIsfF+0x1a>
    2fa8:	79fb      	ldrb	r3, [r7, #7]
    2faa:	2b46      	cmp	r3, #70	@ 0x46
    2fac:	d101      	bne.n	2fb2 <PrintIsfF+0x1e>
    2fae:	2301      	movs	r3, #1
    2fb0:	60fb      	str	r3, [r7, #12]
    2fb2:	68fb      	ldr	r3, [r7, #12]
    2fb4:	4618      	mov	r0, r3
    2fb6:	3714      	adds	r7, #20
    2fb8:	46bd      	mov	sp, r7
    2fba:	f85d 7b04 	ldr.w	r7, [sp], #4
    2fbe:	4770      	bx	lr

00002fc0 <PrintIsxX>:
    2fc0:	b480      	push	{r7}
    2fc2:	b085      	sub	sp, #20
    2fc4:	af00      	add	r7, sp, #0
    2fc6:	4603      	mov	r3, r0
    2fc8:	71fb      	strb	r3, [r7, #7]
    2fca:	2300      	movs	r3, #0
    2fcc:	60fb      	str	r3, [r7, #12]
    2fce:	79fb      	ldrb	r3, [r7, #7]
    2fd0:	2b78      	cmp	r3, #120	@ 0x78
    2fd2:	d002      	beq.n	2fda <PrintIsxX+0x1a>
    2fd4:	79fb      	ldrb	r3, [r7, #7]
    2fd6:	2b58      	cmp	r3, #88	@ 0x58
    2fd8:	d101      	bne.n	2fde <PrintIsxX+0x1e>
    2fda:	2301      	movs	r3, #1
    2fdc:	60fb      	str	r3, [r7, #12]
    2fde:	68fb      	ldr	r3, [r7, #12]
    2fe0:	4618      	mov	r0, r3
    2fe2:	3714      	adds	r7, #20
    2fe4:	46bd      	mov	sp, r7
    2fe6:	f85d 7b04 	ldr.w	r7, [sp], #4
    2fea:	4770      	bx	lr

00002fec <PrintFilterLengthFlag>:
    2fec:	b480      	push	{r7}
    2fee:	b085      	sub	sp, #20
    2ff0:	af00      	add	r7, sp, #0
    2ff2:	6078      	str	r0, [r7, #4]
    2ff4:	687b      	ldr	r3, [r7, #4]
    2ff6:	681b      	ldr	r3, [r3, #0]
    2ff8:	60fb      	str	r3, [r7, #12]
    2ffa:	68fb      	ldr	r3, [r7, #12]
    2ffc:	3301      	adds	r3, #1
    2ffe:	60fb      	str	r3, [r7, #12]
    3000:	68fb      	ldr	r3, [r7, #12]
    3002:	781b      	ldrb	r3, [r3, #0]
    3004:	72fb      	strb	r3, [r7, #11]
    3006:	7afb      	ldrb	r3, [r7, #11]
    3008:	2b68      	cmp	r3, #104	@ 0x68
    300a:	d0f6      	beq.n	2ffa <PrintFilterLengthFlag+0xe>
    300c:	7afb      	ldrb	r3, [r7, #11]
    300e:	2b6c      	cmp	r3, #108	@ 0x6c
    3010:	d0f3      	beq.n	2ffa <PrintFilterLengthFlag+0xe>
    3012:	68fb      	ldr	r3, [r7, #12]
    3014:	3b01      	subs	r3, #1
    3016:	60fb      	str	r3, [r7, #12]
    3018:	687b      	ldr	r3, [r7, #4]
    301a:	68fa      	ldr	r2, [r7, #12]
    301c:	601a      	str	r2, [r3, #0]
    301e:	bf00      	nop
    3020:	3714      	adds	r7, #20
    3022:	46bd      	mov	sp, r7
    3024:	f85d 7b04 	ldr.w	r7, [sp], #4
    3028:	4770      	bx	lr

0000302a <PrintGetRadixFromobpu>:
    302a:	b480      	push	{r7}
    302c:	b085      	sub	sp, #20
    302e:	af00      	add	r7, sp, #0
    3030:	4603      	mov	r3, r0
    3032:	71fb      	strb	r3, [r7, #7]
    3034:	79fb      	ldrb	r3, [r7, #7]
    3036:	2b6f      	cmp	r3, #111	@ 0x6f
    3038:	d102      	bne.n	3040 <PrintGetRadixFromobpu+0x16>
    303a:	2308      	movs	r3, #8
    303c:	73fb      	strb	r3, [r7, #15]
    303e:	e00d      	b.n	305c <PrintGetRadixFromobpu+0x32>
    3040:	79fb      	ldrb	r3, [r7, #7]
    3042:	2b62      	cmp	r3, #98	@ 0x62
    3044:	d102      	bne.n	304c <PrintGetRadixFromobpu+0x22>
    3046:	2302      	movs	r3, #2
    3048:	73fb      	strb	r3, [r7, #15]
    304a:	e007      	b.n	305c <PrintGetRadixFromobpu+0x32>
    304c:	79fb      	ldrb	r3, [r7, #7]
    304e:	2b70      	cmp	r3, #112	@ 0x70
    3050:	d102      	bne.n	3058 <PrintGetRadixFromobpu+0x2e>
    3052:	2310      	movs	r3, #16
    3054:	73fb      	strb	r3, [r7, #15]
    3056:	e001      	b.n	305c <PrintGetRadixFromobpu+0x32>
    3058:	230a      	movs	r3, #10
    305a:	73fb      	strb	r3, [r7, #15]
    305c:	7bfb      	ldrb	r3, [r7, #15]
    305e:	4618      	mov	r0, r3
    3060:	3714      	adds	r7, #20
    3062:	46bd      	mov	sp, r7
    3064:	f85d 7b04 	ldr.w	r7, [sp], #4
    3068:	4770      	bx	lr

0000306a <ConvertRadixNumToString>:
    306a:	b480      	push	{r7}
    306c:	b08f      	sub	sp, #60	@ 0x3c
    306e:	af00      	add	r7, sp, #0
    3070:	60f8      	str	r0, [r7, #12]
    3072:	60b9      	str	r1, [r7, #8]
    3074:	607a      	str	r2, [r7, #4]
    3076:	603b      	str	r3, [r7, #0]
    3078:	2300      	movs	r3, #0
    307a:	62fb      	str	r3, [r7, #44]	@ 0x2c
    307c:	68fb      	ldr	r3, [r7, #12]
    307e:	62bb      	str	r3, [r7, #40]	@ 0x28
    3080:	6abb      	ldr	r3, [r7, #40]	@ 0x28
    3082:	1c5a      	adds	r2, r3, #1
    3084:	62ba      	str	r2, [r7, #40]	@ 0x28
    3086:	2200      	movs	r2, #0
    3088:	701a      	strb	r2, [r3, #0]
    308a:	2300      	movs	r3, #0
    308c:	607b      	str	r3, [r7, #4]
    308e:	2300      	movs	r3, #0
    3090:	627b      	str	r3, [r7, #36]	@ 0x24
    3092:	2300      	movs	r3, #0
    3094:	623b      	str	r3, [r7, #32]
    3096:	2300      	movs	r3, #0
    3098:	61fb      	str	r3, [r7, #28]
    309a:	2300      	movs	r3, #0
    309c:	637b      	str	r3, [r7, #52]	@ 0x34
    309e:	2300      	movs	r3, #0
    30a0:	61bb      	str	r3, [r7, #24]
    30a2:	2300      	movs	r3, #0
    30a4:	633b      	str	r3, [r7, #48]	@ 0x30
    30a6:	2300      	movs	r3, #0
    30a8:	617b      	str	r3, [r7, #20]
    30aa:	68bb      	ldr	r3, [r7, #8]
    30ac:	681b      	ldr	r3, [r3, #0]
    30ae:	637b      	str	r3, [r7, #52]	@ 0x34
    30b0:	6b7b      	ldr	r3, [r7, #52]	@ 0x34
    30b2:	2b00      	cmp	r3, #0
    30b4:	d130      	bne.n	3118 <ConvertRadixNumToString+0xae>
    30b6:	6abb      	ldr	r3, [r7, #40]	@ 0x28
    30b8:	2230      	movs	r2, #48	@ 0x30
    30ba:	701a      	strb	r2, [r3, #0]
    30bc:	6afb      	ldr	r3, [r7, #44]	@ 0x2c
    30be:	3301      	adds	r3, #1
    30c0:	62fb      	str	r3, [r7, #44]	@ 0x2c
    30c2:	6afb      	ldr	r3, [r7, #44]	@ 0x2c
    30c4:	e02c      	b.n	3120 <ConvertRadixNumToString+0xb6>
    30c6:	6b7a      	ldr	r2, [r7, #52]	@ 0x34
    30c8:	683b      	ldr	r3, [r7, #0]
    30ca:	fbb2 f3f3 	udiv	r3, r2, r3
    30ce:	61bb      	str	r3, [r7, #24]
    30d0:	69bb      	ldr	r3, [r7, #24]
    30d2:	683a      	ldr	r2, [r7, #0]
    30d4:	fb02 f303 	mul.w	r3, r2, r3
    30d8:	6b7a      	ldr	r2, [r7, #52]	@ 0x34
    30da:	1ad3      	subs	r3, r2, r3
    30dc:	633b      	str	r3, [r7, #48]	@ 0x30
    30de:	6b3b      	ldr	r3, [r7, #48]	@ 0x30
    30e0:	2b09      	cmp	r3, #9
    30e2:	d803      	bhi.n	30ec <ConvertRadixNumToString+0x82>
    30e4:	6b3b      	ldr	r3, [r7, #48]	@ 0x30
    30e6:	3330      	adds	r3, #48	@ 0x30
    30e8:	633b      	str	r3, [r7, #48]	@ 0x30
    30ea:	e00a      	b.n	3102 <ConvertRadixNumToString+0x98>
    30ec:	f897 3040 	ldrb.w	r3, [r7, #64]	@ 0x40
    30f0:	2b00      	cmp	r3, #0
    30f2:	d001      	beq.n	30f8 <ConvertRadixNumToString+0x8e>
    30f4:	2241      	movs	r2, #65	@ 0x41
    30f6:	e000      	b.n	30fa <ConvertRadixNumToString+0x90>
    30f8:	2261      	movs	r2, #97	@ 0x61
    30fa:	6b3b      	ldr	r3, [r7, #48]	@ 0x30
    30fc:	4413      	add	r3, r2
    30fe:	3b0a      	subs	r3, #10
    3100:	633b      	str	r3, [r7, #48]	@ 0x30
    3102:	69bb      	ldr	r3, [r7, #24]
    3104:	637b      	str	r3, [r7, #52]	@ 0x34
    3106:	6abb      	ldr	r3, [r7, #40]	@ 0x28
    3108:	1c5a      	adds	r2, r3, #1
    310a:	62ba      	str	r2, [r7, #40]	@ 0x28
    310c:	6b3a      	ldr	r2, [r7, #48]	@ 0x30
    310e:	b2d2      	uxtb	r2, r2
    3110:	701a      	strb	r2, [r3, #0]
    3112:	6afb      	ldr	r3, [r7, #44]	@ 0x2c
    3114:	3301      	adds	r3, #1
    3116:	62fb      	str	r3, [r7, #44]	@ 0x2c
    3118:	6b7b      	ldr	r3, [r7, #52]	@ 0x34
    311a:	2b00      	cmp	r3, #0
    311c:	d1d3      	bne.n	30c6 <ConvertRadixNumToString+0x5c>
    311e:	6afb      	ldr	r3, [r7, #44]	@ 0x2c
    3120:	4618      	mov	r0, r3
    3122:	373c      	adds	r7, #60	@ 0x3c
    3124:	46bd      	mov	sp, r7
    3126:	f85d 7b04 	ldr.w	r7, [sp], #4
    312a:	4770      	bx	lr

0000312c <StrFormatPrintf>:
    312c:	b590      	push	{r4, r7, lr}
    312e:	b0a1      	sub	sp, #132	@ 0x84
    3130:	af04      	add	r7, sp, #16
    3132:	60f8      	str	r0, [r7, #12]
    3134:	60b9      	str	r1, [r7, #8]
    3136:	607a      	str	r2, [r7, #4]
    3138:	603b      	str	r3, [r7, #0]
    313a:	2300      	movs	r3, #0
    313c:	667b      	str	r3, [r7, #100]	@ 0x64
    313e:	2300      	movs	r3, #0
    3140:	663b      	str	r3, [r7, #96]	@ 0x60
    3142:	2300      	movs	r3, #0
    3144:	623b      	str	r3, [r7, #32]
    3146:	2300      	movs	r3, #0
    3148:	65fb      	str	r3, [r7, #92]	@ 0x5c
    314a:	2300      	movs	r3, #0
    314c:	61bb      	str	r3, [r7, #24]
    314e:	68fb      	ldr	r3, [r7, #12]
    3150:	64bb      	str	r3, [r7, #72]	@ 0x48
    3152:	6cbb      	ldr	r3, [r7, #72]	@ 0x48
    3154:	781b      	ldrb	r3, [r3, #0]
    3156:	2b00      	cmp	r3, #0
    3158:	f000 8138 	beq.w	33cc <StrFormatPrintf+0x2a0>
    315c:	6cbb      	ldr	r3, [r7, #72]	@ 0x48
    315e:	781b      	ldrb	r3, [r3, #0]
    3160:	f887 305b 	strb.w	r3, [r7, #91]	@ 0x5b
    3164:	f897 305b 	ldrb.w	r3, [r7, #91]	@ 0x5b
    3168:	2b25      	cmp	r3, #37	@ 0x25
    316a:	d00b      	beq.n	3184 <StrFormatPrintf+0x58>
    316c:	f897 205b 	ldrb.w	r2, [r7, #91]	@ 0x5b
    3170:	f107 0120 	add.w	r1, r7, #32
    3174:	683c      	ldr	r4, [r7, #0]
    3176:	2301      	movs	r3, #1
    3178:	6878      	ldr	r0, [r7, #4]
    317a:	47a0      	blx	r4
    317c:	6cbb      	ldr	r3, [r7, #72]	@ 0x48
    317e:	3301      	adds	r3, #1
    3180:	64bb      	str	r3, [r7, #72]	@ 0x48
    3182:	e122      	b.n	33ca <StrFormatPrintf+0x29e>
    3184:	2301      	movs	r3, #1
    3186:	f887 306b 	strb.w	r3, [r7, #107]	@ 0x6b
    318a:	f107 0208 	add.w	r2, r7, #8
    318e:	f107 0348 	add.w	r3, r7, #72	@ 0x48
    3192:	4611      	mov	r1, r2
    3194:	4618      	mov	r0, r3
    3196:	f7ff fe0c 	bl	2db2 <PrintGetWidth>
    319a:	6578      	str	r0, [r7, #84]	@ 0x54
    319c:	f107 0108 	add.w	r1, r7, #8
    31a0:	f107 0348 	add.w	r3, r7, #72	@ 0x48
    31a4:	2200      	movs	r2, #0
    31a6:	4618      	mov	r0, r3
    31a8:	f7ff fe38 	bl	2e1c <PrintGetPrecision>
    31ac:	6538      	str	r0, [r7, #80]	@ 0x50
    31ae:	f107 0348 	add.w	r3, r7, #72	@ 0x48
    31b2:	4618      	mov	r0, r3
    31b4:	f7ff ff1a 	bl	2fec <PrintFilterLengthFlag>
    31b8:	6cbb      	ldr	r3, [r7, #72]	@ 0x48
    31ba:	3301      	adds	r3, #1
    31bc:	64bb      	str	r3, [r7, #72]	@ 0x48
    31be:	6cbb      	ldr	r3, [r7, #72]	@ 0x48
    31c0:	781b      	ldrb	r3, [r3, #0]
    31c2:	f887 305b 	strb.w	r3, [r7, #91]	@ 0x5b
    31c6:	f897 305b 	ldrb.w	r3, [r7, #91]	@ 0x5b
    31ca:	4618      	mov	r0, r3
    31cc:	f7ff fe88 	bl	2ee0 <PrintIsdi>
    31d0:	4603      	mov	r3, r0
    31d2:	2b01      	cmp	r3, #1
    31d4:	d125      	bne.n	3222 <StrFormatPrintf+0xf6>
    31d6:	68bb      	ldr	r3, [r7, #8]
    31d8:	1d1a      	adds	r2, r3, #4
    31da:	60ba      	str	r2, [r7, #8]
    31dc:	681b      	ldr	r3, [r3, #0]
    31de:	61fb      	str	r3, [r7, #28]
    31e0:	f107 011c 	add.w	r1, r7, #28
    31e4:	f107 0024 	add.w	r0, r7, #36	@ 0x24
    31e8:	f897 306b 	ldrb.w	r3, [r7, #107]	@ 0x6b
    31ec:	9300      	str	r3, [sp, #0]
    31ee:	230a      	movs	r3, #10
    31f0:	2201      	movs	r2, #1
    31f2:	f7ff ff3a 	bl	306a <ConvertRadixNumToString>
    31f6:	6638      	str	r0, [r7, #96]	@ 0x60
    31f8:	f107 0224 	add.w	r2, r7, #36	@ 0x24
    31fc:	6e3b      	ldr	r3, [r7, #96]	@ 0x60
    31fe:	4413      	add	r3, r2
    3200:	667b      	str	r3, [r7, #100]	@ 0x64
    3202:	6e3a      	ldr	r2, [r7, #96]	@ 0x60
    3204:	f107 0320 	add.w	r3, r7, #32
    3208:	9303      	str	r3, [sp, #12]
    320a:	687b      	ldr	r3, [r7, #4]
    320c:	9302      	str	r3, [sp, #8]
    320e:	683b      	ldr	r3, [r7, #0]
    3210:	9301      	str	r3, [sp, #4]
    3212:	6e7b      	ldr	r3, [r7, #100]	@ 0x64
    3214:	9300      	str	r3, [sp, #0]
    3216:	2300      	movs	r3, #0
    3218:	6d79      	ldr	r1, [r7, #84]	@ 0x54
    321a:	2000      	movs	r0, #0
    321c:	f7ff fe76 	bl	2f0c <PrintOutputdifFobpu>
    3220:	e0d0      	b.n	33c4 <StrFormatPrintf+0x298>
    3222:	f897 305b 	ldrb.w	r3, [r7, #91]	@ 0x5b
    3226:	4618      	mov	r0, r3
    3228:	f7ff feb4 	bl	2f94 <PrintIsfF>
    322c:	4603      	mov	r3, r0
    322e:	2b01      	cmp	r3, #1
    3230:	d106      	bne.n	3240 <StrFormatPrintf+0x114>
    3232:	68bb      	ldr	r3, [r7, #8]
    3234:	3307      	adds	r3, #7
    3236:	f023 0307 	bic.w	r3, r3, #7
    323a:	3308      	adds	r3, #8
    323c:	60bb      	str	r3, [r7, #8]
    323e:	e0c1      	b.n	33c4 <StrFormatPrintf+0x298>
    3240:	f897 305b 	ldrb.w	r3, [r7, #91]	@ 0x5b
    3244:	4618      	mov	r0, r3
    3246:	f7ff febb 	bl	2fc0 <PrintIsxX>
    324a:	4603      	mov	r3, r0
    324c:	2b01      	cmp	r3, #1
    324e:	d12e      	bne.n	32ae <StrFormatPrintf+0x182>
    3250:	f897 305b 	ldrb.w	r3, [r7, #91]	@ 0x5b
    3254:	2b78      	cmp	r3, #120	@ 0x78
    3256:	d102      	bne.n	325e <StrFormatPrintf+0x132>
    3258:	2300      	movs	r3, #0
    325a:	f887 306b 	strb.w	r3, [r7, #107]	@ 0x6b
    325e:	68bb      	ldr	r3, [r7, #8]
    3260:	1d1a      	adds	r2, r3, #4
    3262:	60ba      	str	r2, [r7, #8]
    3264:	681b      	ldr	r3, [r3, #0]
    3266:	61bb      	str	r3, [r7, #24]
    3268:	f107 0118 	add.w	r1, r7, #24
    326c:	f107 0024 	add.w	r0, r7, #36	@ 0x24
    3270:	f897 306b 	ldrb.w	r3, [r7, #107]	@ 0x6b
    3274:	9300      	str	r3, [sp, #0]
    3276:	2310      	movs	r3, #16
    3278:	2200      	movs	r2, #0
    327a:	f7ff fef6 	bl	306a <ConvertRadixNumToString>
    327e:	6638      	str	r0, [r7, #96]	@ 0x60
    3280:	f107 0224 	add.w	r2, r7, #36	@ 0x24
    3284:	6e3b      	ldr	r3, [r7, #96]	@ 0x60
    3286:	4413      	add	r3, r2
    3288:	667b      	str	r3, [r7, #100]	@ 0x64
    328a:	6e3a      	ldr	r2, [r7, #96]	@ 0x60
    328c:	f897 106b 	ldrb.w	r1, [r7, #107]	@ 0x6b
    3290:	f107 0320 	add.w	r3, r7, #32
    3294:	9303      	str	r3, [sp, #12]
    3296:	687b      	ldr	r3, [r7, #4]
    3298:	9302      	str	r3, [sp, #8]
    329a:	683b      	ldr	r3, [r7, #0]
    329c:	9301      	str	r3, [sp, #4]
    329e:	6e7b      	ldr	r3, [r7, #100]	@ 0x64
    32a0:	9300      	str	r3, [sp, #0]
    32a2:	460b      	mov	r3, r1
    32a4:	6d79      	ldr	r1, [r7, #84]	@ 0x54
    32a6:	2000      	movs	r0, #0
    32a8:	f7ff fe52 	bl	2f50 <PrintOutputxX>
    32ac:	e08a      	b.n	33c4 <StrFormatPrintf+0x298>
    32ae:	f897 305b 	ldrb.w	r3, [r7, #91]	@ 0x5b
    32b2:	4618      	mov	r0, r3
    32b4:	f7ff fdf8 	bl	2ea8 <PrintIsobpu>
    32b8:	4603      	mov	r3, r0
    32ba:	2b01      	cmp	r3, #1
    32bc:	d13e      	bne.n	333c <StrFormatPrintf+0x210>
    32be:	f897 305b 	ldrb.w	r3, [r7, #91]	@ 0x5b
    32c2:	2b70      	cmp	r3, #112	@ 0x70
    32c4:	d10d      	bne.n	32e2 <StrFormatPrintf+0x1b6>
    32c6:	68bb      	ldr	r3, [r7, #8]
    32c8:	1d1a      	adds	r2, r3, #4
    32ca:	60ba      	str	r2, [r7, #8]
    32cc:	681b      	ldr	r3, [r3, #0]
    32ce:	617b      	str	r3, [r7, #20]
    32d0:	f107 0114 	add.w	r1, r7, #20
    32d4:	f107 0318 	add.w	r3, r7, #24
    32d8:	2204      	movs	r2, #4
    32da:	4618      	mov	r0, r3
    32dc:	f000 ffd7 	bl	428e <memcpy>
    32e0:	e004      	b.n	32ec <StrFormatPrintf+0x1c0>
    32e2:	68bb      	ldr	r3, [r7, #8]
    32e4:	1d1a      	adds	r2, r3, #4
    32e6:	60ba      	str	r2, [r7, #8]
    32e8:	681b      	ldr	r3, [r3, #0]
    32ea:	61bb      	str	r3, [r7, #24]
    32ec:	f897 305b 	ldrb.w	r3, [r7, #91]	@ 0x5b
    32f0:	4618      	mov	r0, r3
    32f2:	f7ff fe9a 	bl	302a <PrintGetRadixFromobpu>
    32f6:	4603      	mov	r3, r0
    32f8:	65fb      	str	r3, [r7, #92]	@ 0x5c
    32fa:	f107 0118 	add.w	r1, r7, #24
    32fe:	f107 0024 	add.w	r0, r7, #36	@ 0x24
    3302:	f897 306b 	ldrb.w	r3, [r7, #107]	@ 0x6b
    3306:	9300      	str	r3, [sp, #0]
    3308:	6dfb      	ldr	r3, [r7, #92]	@ 0x5c
    330a:	2200      	movs	r2, #0
    330c:	f7ff fead 	bl	306a <ConvertRadixNumToString>
    3310:	6638      	str	r0, [r7, #96]	@ 0x60
    3312:	f107 0224 	add.w	r2, r7, #36	@ 0x24
    3316:	6e3b      	ldr	r3, [r7, #96]	@ 0x60
    3318:	4413      	add	r3, r2
    331a:	667b      	str	r3, [r7, #100]	@ 0x64
    331c:	6e3a      	ldr	r2, [r7, #96]	@ 0x60
    331e:	f107 0320 	add.w	r3, r7, #32
    3322:	9303      	str	r3, [sp, #12]
    3324:	687b      	ldr	r3, [r7, #4]
    3326:	9302      	str	r3, [sp, #8]
    3328:	683b      	ldr	r3, [r7, #0]
    332a:	9301      	str	r3, [sp, #4]
    332c:	6e7b      	ldr	r3, [r7, #100]	@ 0x64
    332e:	9300      	str	r3, [sp, #0]
    3330:	2300      	movs	r3, #0
    3332:	6d79      	ldr	r1, [r7, #84]	@ 0x54
    3334:	2000      	movs	r0, #0
    3336:	f7ff fde9 	bl	2f0c <PrintOutputdifFobpu>
    333a:	e043      	b.n	33c4 <StrFormatPrintf+0x298>
    333c:	f897 305b 	ldrb.w	r3, [r7, #91]	@ 0x5b
    3340:	2b63      	cmp	r3, #99	@ 0x63
    3342:	d10d      	bne.n	3360 <StrFormatPrintf+0x234>
    3344:	68bb      	ldr	r3, [r7, #8]
    3346:	1d1a      	adds	r2, r3, #4
    3348:	60ba      	str	r2, [r7, #8]
    334a:	681b      	ldr	r3, [r3, #0]
    334c:	64fb      	str	r3, [r7, #76]	@ 0x4c
    334e:	6cfb      	ldr	r3, [r7, #76]	@ 0x4c
    3350:	b2da      	uxtb	r2, r3
    3352:	f107 0120 	add.w	r1, r7, #32
    3356:	683c      	ldr	r4, [r7, #0]
    3358:	2301      	movs	r3, #1
    335a:	6878      	ldr	r0, [r7, #4]
    335c:	47a0      	blx	r4
    335e:	e031      	b.n	33c4 <StrFormatPrintf+0x298>
    3360:	f897 305b 	ldrb.w	r3, [r7, #91]	@ 0x5b
    3364:	2b73      	cmp	r3, #115	@ 0x73
    3366:	d125      	bne.n	33b4 <StrFormatPrintf+0x288>
    3368:	68bb      	ldr	r3, [r7, #8]
    336a:	1d1a      	adds	r2, r3, #4
    336c:	60ba      	str	r2, [r7, #8]
    336e:	681b      	ldr	r3, [r3, #0]
    3370:	66fb      	str	r3, [r7, #108]	@ 0x6c
    3372:	6efb      	ldr	r3, [r7, #108]	@ 0x6c
    3374:	2b00      	cmp	r3, #0
    3376:	d025      	beq.n	33c4 <StrFormatPrintf+0x298>
    3378:	6ef8      	ldr	r0, [r7, #108]	@ 0x6c
    337a:	f000 ffe7 	bl	434c <strlen>
    337e:	4603      	mov	r3, r0
    3380:	663b      	str	r3, [r7, #96]	@ 0x60
    3382:	6d7a      	ldr	r2, [r7, #84]	@ 0x54
    3384:	6e3b      	ldr	r3, [r7, #96]	@ 0x60
    3386:	1ad3      	subs	r3, r2, r3
    3388:	f107 0120 	add.w	r1, r7, #32
    338c:	683c      	ldr	r4, [r7, #0]
    338e:	2220      	movs	r2, #32
    3390:	6878      	ldr	r0, [r7, #4]
    3392:	47a0      	blx	r4
    3394:	e009      	b.n	33aa <StrFormatPrintf+0x27e>
    3396:	6efb      	ldr	r3, [r7, #108]	@ 0x6c
    3398:	1c5a      	adds	r2, r3, #1
    339a:	66fa      	str	r2, [r7, #108]	@ 0x6c
    339c:	781a      	ldrb	r2, [r3, #0]
    339e:	f107 0120 	add.w	r1, r7, #32
    33a2:	683c      	ldr	r4, [r7, #0]
    33a4:	2301      	movs	r3, #1
    33a6:	6878      	ldr	r0, [r7, #4]
    33a8:	47a0      	blx	r4
    33aa:	6efb      	ldr	r3, [r7, #108]	@ 0x6c
    33ac:	781b      	ldrb	r3, [r3, #0]
    33ae:	2b00      	cmp	r3, #0
    33b0:	d1f1      	bne.n	3396 <StrFormatPrintf+0x26a>
    33b2:	e007      	b.n	33c4 <StrFormatPrintf+0x298>
    33b4:	f897 205b 	ldrb.w	r2, [r7, #91]	@ 0x5b
    33b8:	f107 0120 	add.w	r1, r7, #32
    33bc:	683c      	ldr	r4, [r7, #0]
    33be:	2301      	movs	r3, #1
    33c0:	6878      	ldr	r0, [r7, #4]
    33c2:	47a0      	blx	r4
    33c4:	6cbb      	ldr	r3, [r7, #72]	@ 0x48
    33c6:	3301      	adds	r3, #1
    33c8:	64bb      	str	r3, [r7, #72]	@ 0x48
    33ca:	e6c2      	b.n	3152 <StrFormatPrintf+0x26>
    33cc:	bf00      	nop
    33ce:	6a3b      	ldr	r3, [r7, #32]
    33d0:	4618      	mov	r0, r3
    33d2:	3774      	adds	r7, #116	@ 0x74
    33d4:	46bd      	mov	sp, r7
    33d6:	bd90      	pop	{r4, r7, pc}

000033d8 <OR_IRQHandler>:
    33d8:	b508      	push	{r3, lr}
    33da:	f7fc ffe7 	bl	3ac <ADC0_DriverIRQHandler>
    33de:	bd08      	pop	{r3, pc}

000033e0 <EDMA_0_CH0_IRQHandler>:
    33e0:	b508      	push	{r3, lr}
    33e2:	f7fc ffe3 	bl	3ac <ADC0_DriverIRQHandler>
    33e6:	bd08      	pop	{r3, pc}

000033e8 <EDMA_0_CH1_IRQHandler>:
    33e8:	b508      	push	{r3, lr}
    33ea:	f7fc ffdf 	bl	3ac <ADC0_DriverIRQHandler>
    33ee:	bd08      	pop	{r3, pc}

000033f0 <EDMA_0_CH2_IRQHandler>:
    33f0:	b508      	push	{r3, lr}
    33f2:	f7fc ffdb 	bl	3ac <ADC0_DriverIRQHandler>
    33f6:	bd08      	pop	{r3, pc}

000033f8 <EDMA_0_CH3_IRQHandler>:
    33f8:	b508      	push	{r3, lr}
    33fa:	f7fc ffd7 	bl	3ac <ADC0_DriverIRQHandler>
    33fe:	bd08      	pop	{r3, pc}

00003400 <EDMA_0_CH4_IRQHandler>:
    3400:	b508      	push	{r3, lr}
    3402:	f7fc ffd3 	bl	3ac <ADC0_DriverIRQHandler>
    3406:	bd08      	pop	{r3, pc}

00003408 <EDMA_0_CH5_IRQHandler>:
    3408:	b508      	push	{r3, lr}
    340a:	f7fc ffcf 	bl	3ac <ADC0_DriverIRQHandler>
    340e:	bd08      	pop	{r3, pc}

00003410 <EDMA_0_CH6_IRQHandler>:
    3410:	b508      	push	{r3, lr}
    3412:	f7fc ffcb 	bl	3ac <ADC0_DriverIRQHandler>
    3416:	bd08      	pop	{r3, pc}

00003418 <EDMA_0_CH7_IRQHandler>:
    3418:	b508      	push	{r3, lr}
    341a:	f7fc ffc7 	bl	3ac <ADC0_DriverIRQHandler>
    341e:	bd08      	pop	{r3, pc}

00003420 <EDMA_0_CH8_IRQHandler>:
    3420:	b508      	push	{r3, lr}
    3422:	f7fc ffc3 	bl	3ac <ADC0_DriverIRQHandler>
    3426:	bd08      	pop	{r3, pc}

00003428 <EDMA_0_CH9_IRQHandler>:
    3428:	b508      	push	{r3, lr}
    342a:	f7fc ffbf 	bl	3ac <ADC0_DriverIRQHandler>
    342e:	bd08      	pop	{r3, pc}

00003430 <EDMA_0_CH10_IRQHandler>:
    3430:	b508      	push	{r3, lr}
    3432:	f7fc ffbb 	bl	3ac <ADC0_DriverIRQHandler>
    3436:	bd08      	pop	{r3, pc}

00003438 <EDMA_0_CH11_IRQHandler>:
    3438:	b508      	push	{r3, lr}
    343a:	f7fc ffb7 	bl	3ac <ADC0_DriverIRQHandler>
    343e:	bd08      	pop	{r3, pc}

00003440 <EDMA_0_CH12_IRQHandler>:
    3440:	b508      	push	{r3, lr}
    3442:	f7fc ffb3 	bl	3ac <ADC0_DriverIRQHandler>
    3446:	bd08      	pop	{r3, pc}

00003448 <EDMA_0_CH13_IRQHandler>:
    3448:	b508      	push	{r3, lr}
    344a:	f7fc ffaf 	bl	3ac <ADC0_DriverIRQHandler>
    344e:	bd08      	pop	{r3, pc}

00003450 <EDMA_0_CH14_IRQHandler>:
    3450:	b508      	push	{r3, lr}
    3452:	f7fc ffab 	bl	3ac <ADC0_DriverIRQHandler>
    3456:	bd08      	pop	{r3, pc}

00003458 <EDMA_0_CH15_IRQHandler>:
    3458:	b508      	push	{r3, lr}
    345a:	f7fc ffa7 	bl	3ac <ADC0_DriverIRQHandler>
    345e:	bd08      	pop	{r3, pc}

00003460 <GPIO00_IRQHandler>:
    3460:	b508      	push	{r3, lr}
    3462:	f7fc ffa3 	bl	3ac <ADC0_DriverIRQHandler>
    3466:	bd08      	pop	{r3, pc}

00003468 <GPIO01_IRQHandler>:
    3468:	b508      	push	{r3, lr}
    346a:	f7fc ff9f 	bl	3ac <ADC0_DriverIRQHandler>
    346e:	bd08      	pop	{r3, pc}

00003470 <GPIO10_IRQHandler>:
    3470:	b508      	push	{r3, lr}
    3472:	f7fc ff9b 	bl	3ac <ADC0_DriverIRQHandler>
    3476:	bd08      	pop	{r3, pc}

00003478 <GPIO11_IRQHandler>:
    3478:	b508      	push	{r3, lr}
    347a:	f7fc ff97 	bl	3ac <ADC0_DriverIRQHandler>
    347e:	bd08      	pop	{r3, pc}

00003480 <GPIO20_IRQHandler>:
    3480:	b508      	push	{r3, lr}
    3482:	f7fc ff93 	bl	3ac <ADC0_DriverIRQHandler>
    3486:	bd08      	pop	{r3, pc}

00003488 <GPIO21_IRQHandler>:
    3488:	b508      	push	{r3, lr}
    348a:	f7fc ff8f 	bl	3ac <ADC0_DriverIRQHandler>
    348e:	bd08      	pop	{r3, pc}

00003490 <GPIO30_IRQHandler>:
    3490:	b508      	push	{r3, lr}
    3492:	f7fc ff8b 	bl	3ac <ADC0_DriverIRQHandler>
    3496:	bd08      	pop	{r3, pc}

00003498 <GPIO31_IRQHandler>:
    3498:	b508      	push	{r3, lr}
    349a:	f7fc ff87 	bl	3ac <ADC0_DriverIRQHandler>
    349e:	bd08      	pop	{r3, pc}

000034a0 <GPIO40_IRQHandler>:
    34a0:	b508      	push	{r3, lr}
    34a2:	f7fc ff83 	bl	3ac <ADC0_DriverIRQHandler>
    34a6:	bd08      	pop	{r3, pc}

000034a8 <GPIO41_IRQHandler>:
    34a8:	b508      	push	{r3, lr}
    34aa:	f7fc ff7f 	bl	3ac <ADC0_DriverIRQHandler>
    34ae:	bd08      	pop	{r3, pc}

000034b0 <GPIO50_IRQHandler>:
    34b0:	b508      	push	{r3, lr}
    34b2:	f7fc ff7b 	bl	3ac <ADC0_DriverIRQHandler>
    34b6:	bd08      	pop	{r3, pc}

000034b8 <GPIO51_IRQHandler>:
    34b8:	b508      	push	{r3, lr}
    34ba:	f7fc ff77 	bl	3ac <ADC0_DriverIRQHandler>
    34be:	bd08      	pop	{r3, pc}

000034c0 <UTICK0_IRQHandler>:
    34c0:	b508      	push	{r3, lr}
    34c2:	f7fc ff73 	bl	3ac <ADC0_DriverIRQHandler>
    34c6:	bd08      	pop	{r3, pc}

000034c8 <MRT0_IRQHandler>:
    34c8:	b508      	push	{r3, lr}
    34ca:	f7fc ff6f 	bl	3ac <ADC0_DriverIRQHandler>
    34ce:	bd08      	pop	{r3, pc}

000034d0 <CTIMER0_IRQHandler>:
    34d0:	b508      	push	{r3, lr}
    34d2:	f7fc ff6b 	bl	3ac <ADC0_DriverIRQHandler>
    34d6:	bd08      	pop	{r3, pc}

000034d8 <CTIMER1_IRQHandler>:
    34d8:	b508      	push	{r3, lr}
    34da:	f7fc ff67 	bl	3ac <ADC0_DriverIRQHandler>
    34de:	bd08      	pop	{r3, pc}

000034e0 <SCT0_IRQHandler>:
    34e0:	b508      	push	{r3, lr}
    34e2:	f7fc ff63 	bl	3ac <ADC0_DriverIRQHandler>
    34e6:	bd08      	pop	{r3, pc}

000034e8 <CTIMER2_IRQHandler>:
    34e8:	b508      	push	{r3, lr}
    34ea:	f7fc ff5f 	bl	3ac <ADC0_DriverIRQHandler>
    34ee:	bd08      	pop	{r3, pc}

000034f0 <LP_FLEXCOMM0_IRQHandler>:
    34f0:	b508      	push	{r3, lr}
    34f2:	f000 fc67 	bl	3dc4 <LP_FLEXCOMM0_DriverIRQHandler>
    34f6:	bd08      	pop	{r3, pc}

000034f8 <LP_FLEXCOMM1_IRQHandler>:
    34f8:	b508      	push	{r3, lr}
    34fa:	f000 fc6a 	bl	3dd2 <LP_FLEXCOMM1_DriverIRQHandler>
    34fe:	bd08      	pop	{r3, pc}

00003500 <LP_FLEXCOMM2_IRQHandler>:
    3500:	b508      	push	{r3, lr}
    3502:	f000 fc6d 	bl	3de0 <LP_FLEXCOMM2_DriverIRQHandler>
    3506:	bd08      	pop	{r3, pc}

00003508 <LP_FLEXCOMM3_IRQHandler>:
    3508:	b508      	push	{r3, lr}
    350a:	f000 fc70 	bl	3dee <LP_FLEXCOMM3_DriverIRQHandler>
    350e:	bd08      	pop	{r3, pc}

00003510 <LP_FLEXCOMM4_IRQHandler>:
    3510:	b508      	push	{r3, lr}
    3512:	f000 fc73 	bl	3dfc <LP_FLEXCOMM4_DriverIRQHandler>
    3516:	bd08      	pop	{r3, pc}

00003518 <LP_FLEXCOMM5_IRQHandler>:
    3518:	b508      	push	{r3, lr}
    351a:	f000 fc76 	bl	3e0a <LP_FLEXCOMM5_DriverIRQHandler>
    351e:	bd08      	pop	{r3, pc}

00003520 <LP_FLEXCOMM6_IRQHandler>:
    3520:	b508      	push	{r3, lr}
    3522:	f000 fc79 	bl	3e18 <LP_FLEXCOMM6_DriverIRQHandler>
    3526:	bd08      	pop	{r3, pc}

00003528 <LP_FLEXCOMM7_IRQHandler>:
    3528:	b508      	push	{r3, lr}
    352a:	f000 fc7c 	bl	3e26 <LP_FLEXCOMM7_DriverIRQHandler>
    352e:	bd08      	pop	{r3, pc}

00003530 <LP_FLEXCOMM8_IRQHandler>:
    3530:	b508      	push	{r3, lr}
    3532:	f000 fc7f 	bl	3e34 <LP_FLEXCOMM8_DriverIRQHandler>
    3536:	bd08      	pop	{r3, pc}

00003538 <LP_FLEXCOMM9_IRQHandler>:
    3538:	b508      	push	{r3, lr}
    353a:	f000 fc82 	bl	3e42 <LP_FLEXCOMM9_DriverIRQHandler>
    353e:	bd08      	pop	{r3, pc}

00003540 <ADC0_IRQHandler>:
    3540:	b508      	push	{r3, lr}
    3542:	f7fc ff33 	bl	3ac <ADC0_DriverIRQHandler>
    3546:	bd08      	pop	{r3, pc}

00003548 <ADC1_IRQHandler>:
    3548:	b508      	push	{r3, lr}
    354a:	f7fc ff2f 	bl	3ac <ADC0_DriverIRQHandler>
    354e:	bd08      	pop	{r3, pc}

00003550 <PINT0_IRQHandler>:
    3550:	b508      	push	{r3, lr}
    3552:	f7fc ff2b 	bl	3ac <ADC0_DriverIRQHandler>
    3556:	bd08      	pop	{r3, pc}

00003558 <PDM_EVENT_IRQHandler>:
    3558:	b508      	push	{r3, lr}
    355a:	f7fc ff27 	bl	3ac <ADC0_DriverIRQHandler>
    355e:	bd08      	pop	{r3, pc}

00003560 <Reserved65_IRQHandler>:
    3560:	b508      	push	{r3, lr}
    3562:	f7fc ff23 	bl	3ac <ADC0_DriverIRQHandler>
    3566:	bd08      	pop	{r3, pc}

00003568 <USB0_FS_IRQHandler>:
    3568:	b508      	push	{r3, lr}
    356a:	f7fc ff1f 	bl	3ac <ADC0_DriverIRQHandler>
    356e:	bd08      	pop	{r3, pc}

00003570 <USB0_DCD_IRQHandler>:
    3570:	b508      	push	{r3, lr}
    3572:	f7fc ff1b 	bl	3ac <ADC0_DriverIRQHandler>
    3576:	bd08      	pop	{r3, pc}

00003578 <RTC_IRQHandler>:
    3578:	b508      	push	{r3, lr}
    357a:	f7fc ff17 	bl	3ac <ADC0_DriverIRQHandler>
    357e:	bd08      	pop	{r3, pc}

00003580 <SMARTDMA_IRQHandler>:
    3580:	b508      	push	{r3, lr}
    3582:	f000 fb49 	bl	3c18 <SMARTDMA_DriverIRQHandler>
    3586:	bd08      	pop	{r3, pc}

00003588 <MAILBOX_IRQHandler>:
    3588:	b508      	push	{r3, lr}
    358a:	f7fc ff0f 	bl	3ac <ADC0_DriverIRQHandler>
    358e:	bd08      	pop	{r3, pc}

00003590 <CTIMER3_IRQHandler>:
    3590:	b508      	push	{r3, lr}
    3592:	f7fc ff0b 	bl	3ac <ADC0_DriverIRQHandler>
    3596:	bd08      	pop	{r3, pc}

00003598 <CTIMER4_IRQHandler>:
    3598:	b508      	push	{r3, lr}
    359a:	f7fc ff07 	bl	3ac <ADC0_DriverIRQHandler>
    359e:	bd08      	pop	{r3, pc}

000035a0 <OS_EVENT_IRQHandler>:
    35a0:	b508      	push	{r3, lr}
    35a2:	f7fc ff03 	bl	3ac <ADC0_DriverIRQHandler>
    35a6:	bd08      	pop	{r3, pc}

000035a8 <FLEXSPI0_IRQHandler>:
    35a8:	b508      	push	{r3, lr}
    35aa:	f7fc feff 	bl	3ac <ADC0_DriverIRQHandler>
    35ae:	bd08      	pop	{r3, pc}

000035b0 <SAI0_IRQHandler>:
    35b0:	b508      	push	{r3, lr}
    35b2:	f7fc fefb 	bl	3ac <ADC0_DriverIRQHandler>
    35b6:	bd08      	pop	{r3, pc}

000035b8 <SAI1_IRQHandler>:
    35b8:	b508      	push	{r3, lr}
    35ba:	f7fc fef7 	bl	3ac <ADC0_DriverIRQHandler>
    35be:	bd08      	pop	{r3, pc}

000035c0 <USDHC0_IRQHandler>:
    35c0:	b508      	push	{r3, lr}
    35c2:	f7fc fef3 	bl	3ac <ADC0_DriverIRQHandler>
    35c6:	bd08      	pop	{r3, pc}

000035c8 <CAN0_IRQHandler>:
    35c8:	b508      	push	{r3, lr}
    35ca:	f7fc feef 	bl	3ac <ADC0_DriverIRQHandler>
    35ce:	bd08      	pop	{r3, pc}

000035d0 <CAN1_IRQHandler>:
    35d0:	b508      	push	{r3, lr}
    35d2:	f7fc feeb 	bl	3ac <ADC0_DriverIRQHandler>
    35d6:	bd08      	pop	{r3, pc}

000035d8 <Reserved80_IRQHandler>:
    35d8:	b508      	push	{r3, lr}
    35da:	f7fc fee7 	bl	3ac <ADC0_DriverIRQHandler>
    35de:	bd08      	pop	{r3, pc}

000035e0 <Reserved81_IRQHandler>:
    35e0:	b508      	push	{r3, lr}
    35e2:	f7fc fee3 	bl	3ac <ADC0_DriverIRQHandler>
    35e6:	bd08      	pop	{r3, pc}

000035e8 <USB1_HS_PHY_IRQHandler>:
    35e8:	b508      	push	{r3, lr}
    35ea:	f7fc fedf 	bl	3ac <ADC0_DriverIRQHandler>
    35ee:	bd08      	pop	{r3, pc}

000035f0 <USB1_HS_IRQHandler>:
    35f0:	b508      	push	{r3, lr}
    35f2:	f7fc fedb 	bl	3ac <ADC0_DriverIRQHandler>
    35f6:	bd08      	pop	{r3, pc}

000035f8 <SEC_HYPERVISOR_CALL_IRQHandler>:
    35f8:	b508      	push	{r3, lr}
    35fa:	f7fc fed7 	bl	3ac <ADC0_DriverIRQHandler>
    35fe:	bd08      	pop	{r3, pc}

00003600 <Reserved85_IRQHandler>:
    3600:	b508      	push	{r3, lr}
    3602:	f7fc fed3 	bl	3ac <ADC0_DriverIRQHandler>
    3606:	bd08      	pop	{r3, pc}

00003608 <PLU_IRQHandler>:
    3608:	b508      	push	{r3, lr}
    360a:	f7fc fecf 	bl	3ac <ADC0_DriverIRQHandler>
    360e:	bd08      	pop	{r3, pc}

00003610 <Freqme_IRQHandler>:
    3610:	b508      	push	{r3, lr}
    3612:	f7fc fecb 	bl	3ac <ADC0_DriverIRQHandler>
    3616:	bd08      	pop	{r3, pc}

00003618 <SEC_VIO_IRQHandler>:
    3618:	b508      	push	{r3, lr}
    361a:	f7fc fec7 	bl	3ac <ADC0_DriverIRQHandler>
    361e:	bd08      	pop	{r3, pc}

00003620 <ELS_IRQHandler>:
    3620:	b508      	push	{r3, lr}
    3622:	f7fc fec3 	bl	3ac <ADC0_DriverIRQHandler>
    3626:	bd08      	pop	{r3, pc}

00003628 <PKC_IRQHandler>:
    3628:	b508      	push	{r3, lr}
    362a:	f7fc febf 	bl	3ac <ADC0_DriverIRQHandler>
    362e:	bd08      	pop	{r3, pc}

00003630 <PUF_IRQHandler>:
    3630:	b508      	push	{r3, lr}
    3632:	f7fc febb 	bl	3ac <ADC0_DriverIRQHandler>
    3636:	bd08      	pop	{r3, pc}

00003638 <PQ_IRQHandler>:
    3638:	b508      	push	{r3, lr}
    363a:	f7fc feb7 	bl	3ac <ADC0_DriverIRQHandler>
    363e:	bd08      	pop	{r3, pc}

00003640 <EDMA_1_CH0_IRQHandler>:
    3640:	b508      	push	{r3, lr}
    3642:	f7fc feb3 	bl	3ac <ADC0_DriverIRQHandler>
    3646:	bd08      	pop	{r3, pc}

00003648 <EDMA_1_CH1_IRQHandler>:
    3648:	b508      	push	{r3, lr}
    364a:	f7fc feaf 	bl	3ac <ADC0_DriverIRQHandler>
    364e:	bd08      	pop	{r3, pc}

00003650 <EDMA_1_CH2_IRQHandler>:
    3650:	b508      	push	{r3, lr}
    3652:	f7fc feab 	bl	3ac <ADC0_DriverIRQHandler>
    3656:	bd08      	pop	{r3, pc}

00003658 <EDMA_1_CH3_IRQHandler>:
    3658:	b508      	push	{r3, lr}
    365a:	f7fc fea7 	bl	3ac <ADC0_DriverIRQHandler>
    365e:	bd08      	pop	{r3, pc}

00003660 <EDMA_1_CH4_IRQHandler>:
    3660:	b508      	push	{r3, lr}
    3662:	f7fc fea3 	bl	3ac <ADC0_DriverIRQHandler>
    3666:	bd08      	pop	{r3, pc}

00003668 <EDMA_1_CH5_IRQHandler>:
    3668:	b508      	push	{r3, lr}
    366a:	f7fc fe9f 	bl	3ac <ADC0_DriverIRQHandler>
    366e:	bd08      	pop	{r3, pc}

00003670 <EDMA_1_CH6_IRQHandler>:
    3670:	b508      	push	{r3, lr}
    3672:	f7fc fe9b 	bl	3ac <ADC0_DriverIRQHandler>
    3676:	bd08      	pop	{r3, pc}

00003678 <EDMA_1_CH7_IRQHandler>:
    3678:	b508      	push	{r3, lr}
    367a:	f7fc fe97 	bl	3ac <ADC0_DriverIRQHandler>
    367e:	bd08      	pop	{r3, pc}

00003680 <EDMA_1_CH8_IRQHandler>:
    3680:	b508      	push	{r3, lr}
    3682:	f7fc fe93 	bl	3ac <ADC0_DriverIRQHandler>
    3686:	bd08      	pop	{r3, pc}

00003688 <EDMA_1_CH9_IRQHandler>:
    3688:	b508      	push	{r3, lr}
    368a:	f7fc fe8f 	bl	3ac <ADC0_DriverIRQHandler>
    368e:	bd08      	pop	{r3, pc}

00003690 <EDMA_1_CH10_IRQHandler>:
    3690:	b508      	push	{r3, lr}
    3692:	f7fc fe8b 	bl	3ac <ADC0_DriverIRQHandler>
    3696:	bd08      	pop	{r3, pc}

00003698 <EDMA_1_CH11_IRQHandler>:
    3698:	b508      	push	{r3, lr}
    369a:	f7fc fe87 	bl	3ac <ADC0_DriverIRQHandler>
    369e:	bd08      	pop	{r3, pc}

000036a0 <EDMA_1_CH12_IRQHandler>:
    36a0:	b508      	push	{r3, lr}
    36a2:	f7fc fe83 	bl	3ac <ADC0_DriverIRQHandler>
    36a6:	bd08      	pop	{r3, pc}

000036a8 <EDMA_1_CH13_IRQHandler>:
    36a8:	b508      	push	{r3, lr}
    36aa:	f7fc fe7f 	bl	3ac <ADC0_DriverIRQHandler>
    36ae:	bd08      	pop	{r3, pc}

000036b0 <EDMA_1_CH14_IRQHandler>:
    36b0:	b508      	push	{r3, lr}
    36b2:	f7fc fe7b 	bl	3ac <ADC0_DriverIRQHandler>
    36b6:	bd08      	pop	{r3, pc}

000036b8 <EDMA_1_CH15_IRQHandler>:
    36b8:	b508      	push	{r3, lr}
    36ba:	f7fc fe77 	bl	3ac <ADC0_DriverIRQHandler>
    36be:	bd08      	pop	{r3, pc}

000036c0 <CDOG0_IRQHandler>:
    36c0:	b508      	push	{r3, lr}
    36c2:	f7fc fe73 	bl	3ac <ADC0_DriverIRQHandler>
    36c6:	bd08      	pop	{r3, pc}

000036c8 <CDOG1_IRQHandler>:
    36c8:	b508      	push	{r3, lr}
    36ca:	f7fc fe6f 	bl	3ac <ADC0_DriverIRQHandler>
    36ce:	bd08      	pop	{r3, pc}

000036d0 <I3C0_IRQHandler>:
    36d0:	b508      	push	{r3, lr}
    36d2:	f7fc fe6b 	bl	3ac <ADC0_DriverIRQHandler>
    36d6:	bd08      	pop	{r3, pc}

000036d8 <I3C1_IRQHandler>:
    36d8:	b508      	push	{r3, lr}
    36da:	f7fc fe67 	bl	3ac <ADC0_DriverIRQHandler>
    36de:	bd08      	pop	{r3, pc}

000036e0 <NPU_IRQHandler>:
    36e0:	b508      	push	{r3, lr}
    36e2:	f7fc fe63 	bl	3ac <ADC0_DriverIRQHandler>
    36e6:	bd08      	pop	{r3, pc}

000036e8 <GDET_IRQHandler>:
    36e8:	b508      	push	{r3, lr}
    36ea:	f7fc fe5f 	bl	3ac <ADC0_DriverIRQHandler>
    36ee:	bd08      	pop	{r3, pc}

000036f0 <VBAT0_IRQHandler>:
    36f0:	b508      	push	{r3, lr}
    36f2:	f7fc fe5b 	bl	3ac <ADC0_DriverIRQHandler>
    36f6:	bd08      	pop	{r3, pc}

000036f8 <EWM0_IRQHandler>:
    36f8:	b508      	push	{r3, lr}
    36fa:	f7fc fe57 	bl	3ac <ADC0_DriverIRQHandler>
    36fe:	bd08      	pop	{r3, pc}

00003700 <TSI_END_OF_SCAN_IRQHandler>:
    3700:	b508      	push	{r3, lr}
    3702:	f7fc fe53 	bl	3ac <ADC0_DriverIRQHandler>
    3706:	bd08      	pop	{r3, pc}

00003708 <TSI_OUT_OF_SCAN_IRQHandler>:
    3708:	b508      	push	{r3, lr}
    370a:	f7fc fe4f 	bl	3ac <ADC0_DriverIRQHandler>
    370e:	bd08      	pop	{r3, pc}

00003710 <EMVSIM0_IRQHandler>:
    3710:	b508      	push	{r3, lr}
    3712:	f7fc fe4b 	bl	3ac <ADC0_DriverIRQHandler>
    3716:	bd08      	pop	{r3, pc}

00003718 <EMVSIM1_IRQHandler>:
    3718:	b508      	push	{r3, lr}
    371a:	f7fc fe47 	bl	3ac <ADC0_DriverIRQHandler>
    371e:	bd08      	pop	{r3, pc}

00003720 <FLEXIO_IRQHandler>:
    3720:	b508      	push	{r3, lr}
    3722:	f7fc fe43 	bl	3ac <ADC0_DriverIRQHandler>
    3726:	bd08      	pop	{r3, pc}

00003728 <DAC0_IRQHandler>:
    3728:	b508      	push	{r3, lr}
    372a:	f7fc fe3f 	bl	3ac <ADC0_DriverIRQHandler>
    372e:	bd08      	pop	{r3, pc}

00003730 <DAC1_IRQHandler>:
    3730:	b508      	push	{r3, lr}
    3732:	f7fc fe3b 	bl	3ac <ADC0_DriverIRQHandler>
    3736:	bd08      	pop	{r3, pc}

00003738 <DAC2_IRQHandler>:
    3738:	b508      	push	{r3, lr}
    373a:	f7fc fe37 	bl	3ac <ADC0_DriverIRQHandler>
    373e:	bd08      	pop	{r3, pc}

00003740 <HSCMP0_IRQHandler>:
    3740:	b508      	push	{r3, lr}
    3742:	f7fc fe33 	bl	3ac <ADC0_DriverIRQHandler>
    3746:	bd08      	pop	{r3, pc}

00003748 <HSCMP1_IRQHandler>:
    3748:	b508      	push	{r3, lr}
    374a:	f7fc fe2f 	bl	3ac <ADC0_DriverIRQHandler>
    374e:	bd08      	pop	{r3, pc}

00003750 <HSCMP2_IRQHandler>:
    3750:	b508      	push	{r3, lr}
    3752:	f7fc fe2b 	bl	3ac <ADC0_DriverIRQHandler>
    3756:	bd08      	pop	{r3, pc}

00003758 <FLEXPWM0_RELOAD_ERROR_IRQHandler>:
    3758:	b508      	push	{r3, lr}
    375a:	f7fc fe27 	bl	3ac <ADC0_DriverIRQHandler>
    375e:	bd08      	pop	{r3, pc}

00003760 <FLEXPWM0_FAULT_IRQHandler>:
    3760:	b508      	push	{r3, lr}
    3762:	f7fc fe23 	bl	3ac <ADC0_DriverIRQHandler>
    3766:	bd08      	pop	{r3, pc}

00003768 <FLEXPWM0_SUBMODULE0_IRQHandler>:
    3768:	b508      	push	{r3, lr}
    376a:	f7fc fe1f 	bl	3ac <ADC0_DriverIRQHandler>
    376e:	bd08      	pop	{r3, pc}

00003770 <FLEXPWM0_SUBMODULE1_IRQHandler>:
    3770:	b508      	push	{r3, lr}
    3772:	f7fc fe1b 	bl	3ac <ADC0_DriverIRQHandler>
    3776:	bd08      	pop	{r3, pc}

00003778 <FLEXPWM0_SUBMODULE2_IRQHandler>:
    3778:	b508      	push	{r3, lr}
    377a:	f7fc fe17 	bl	3ac <ADC0_DriverIRQHandler>
    377e:	bd08      	pop	{r3, pc}

00003780 <FLEXPWM0_SUBMODULE3_IRQHandler>:
    3780:	b508      	push	{r3, lr}
    3782:	f7fc fe13 	bl	3ac <ADC0_DriverIRQHandler>
    3786:	bd08      	pop	{r3, pc}

00003788 <FLEXPWM1_RELOAD_ERROR_IRQHandler>:
    3788:	b508      	push	{r3, lr}
    378a:	f7fc fe0f 	bl	3ac <ADC0_DriverIRQHandler>
    378e:	bd08      	pop	{r3, pc}

00003790 <FLEXPWM1_FAULT_IRQHandler>:
    3790:	b508      	push	{r3, lr}
    3792:	f7fc fe0b 	bl	3ac <ADC0_DriverIRQHandler>
    3796:	bd08      	pop	{r3, pc}

00003798 <FLEXPWM1_SUBMODULE0_IRQHandler>:
    3798:	b508      	push	{r3, lr}
    379a:	f7fc fe07 	bl	3ac <ADC0_DriverIRQHandler>
    379e:	bd08      	pop	{r3, pc}

000037a0 <FLEXPWM1_SUBMODULE1_IRQHandler>:
    37a0:	b508      	push	{r3, lr}
    37a2:	f7fc fe03 	bl	3ac <ADC0_DriverIRQHandler>
    37a6:	bd08      	pop	{r3, pc}

000037a8 <FLEXPWM1_SUBMODULE2_IRQHandler>:
    37a8:	b508      	push	{r3, lr}
    37aa:	f7fc fdff 	bl	3ac <ADC0_DriverIRQHandler>
    37ae:	bd08      	pop	{r3, pc}

000037b0 <FLEXPWM1_SUBMODULE3_IRQHandler>:
    37b0:	b508      	push	{r3, lr}
    37b2:	f7fc fdfb 	bl	3ac <ADC0_DriverIRQHandler>
    37b6:	bd08      	pop	{r3, pc}

000037b8 <ENC0_COMPARE_IRQHandler>:
    37b8:	b508      	push	{r3, lr}
    37ba:	f7fc fdf7 	bl	3ac <ADC0_DriverIRQHandler>
    37be:	bd08      	pop	{r3, pc}

000037c0 <ENC0_HOME_IRQHandler>:
    37c0:	b508      	push	{r3, lr}
    37c2:	f7fc fdf3 	bl	3ac <ADC0_DriverIRQHandler>
    37c6:	bd08      	pop	{r3, pc}

000037c8 <ENC0_WDG_SAB_IRQHandler>:
    37c8:	b508      	push	{r3, lr}
    37ca:	f7fc fdef 	bl	3ac <ADC0_DriverIRQHandler>
    37ce:	bd08      	pop	{r3, pc}

000037d0 <ENC0_IDX_IRQHandler>:
    37d0:	b508      	push	{r3, lr}
    37d2:	f7fc fdeb 	bl	3ac <ADC0_DriverIRQHandler>
    37d6:	bd08      	pop	{r3, pc}

000037d8 <ENC1_COMPARE_IRQHandler>:
    37d8:	b508      	push	{r3, lr}
    37da:	f7fc fde7 	bl	3ac <ADC0_DriverIRQHandler>
    37de:	bd08      	pop	{r3, pc}

000037e0 <ENC1_HOME_IRQHandler>:
    37e0:	b508      	push	{r3, lr}
    37e2:	f7fc fde3 	bl	3ac <ADC0_DriverIRQHandler>
    37e6:	bd08      	pop	{r3, pc}

000037e8 <ENC1_WDG_SAB_IRQHandler>:
    37e8:	b508      	push	{r3, lr}
    37ea:	f7fc fddf 	bl	3ac <ADC0_DriverIRQHandler>
    37ee:	bd08      	pop	{r3, pc}

000037f0 <ENC1_IDX_IRQHandler>:
    37f0:	b508      	push	{r3, lr}
    37f2:	f7fc fddb 	bl	3ac <ADC0_DriverIRQHandler>
    37f6:	bd08      	pop	{r3, pc}

000037f8 <ITRC0_IRQHandler>:
    37f8:	b508      	push	{r3, lr}
    37fa:	f7fc fdd7 	bl	3ac <ADC0_DriverIRQHandler>
    37fe:	bd08      	pop	{r3, pc}

00003800 <BSP32_IRQHandler>:
    3800:	b508      	push	{r3, lr}
    3802:	f7fc fdd3 	bl	3ac <ADC0_DriverIRQHandler>
    3806:	bd08      	pop	{r3, pc}

00003808 <ELS_ERR_IRQHandler>:
    3808:	b508      	push	{r3, lr}
    380a:	f7fc fdcf 	bl	3ac <ADC0_DriverIRQHandler>
    380e:	bd08      	pop	{r3, pc}

00003810 <PKC_ERR_IRQHandler>:
    3810:	b508      	push	{r3, lr}
    3812:	f7fc fdcb 	bl	3ac <ADC0_DriverIRQHandler>
    3816:	bd08      	pop	{r3, pc}

00003818 <ERM_SINGLE_BIT_ERROR_IRQHandler>:
    3818:	b508      	push	{r3, lr}
    381a:	f7fc fdc7 	bl	3ac <ADC0_DriverIRQHandler>
    381e:	bd08      	pop	{r3, pc}

00003820 <ERM_MULTI_BIT_ERROR_IRQHandler>:
    3820:	b508      	push	{r3, lr}
    3822:	f7fc fdc3 	bl	3ac <ADC0_DriverIRQHandler>
    3826:	bd08      	pop	{r3, pc}

00003828 <FMU0_IRQHandler>:
    3828:	b508      	push	{r3, lr}
    382a:	f7fc fdbf 	bl	3ac <ADC0_DriverIRQHandler>
    382e:	bd08      	pop	{r3, pc}

00003830 <ETHERNET_IRQHandler>:
    3830:	b508      	push	{r3, lr}
    3832:	f7fc fdbb 	bl	3ac <ADC0_DriverIRQHandler>
    3836:	bd08      	pop	{r3, pc}

00003838 <ETHERNET_PMT_IRQHandler>:
    3838:	b508      	push	{r3, lr}
    383a:	f7fc fdb7 	bl	3ac <ADC0_DriverIRQHandler>
    383e:	bd08      	pop	{r3, pc}

00003840 <ETHERNET_MACLP_IRQHandler>:
    3840:	b508      	push	{r3, lr}
    3842:	f7fc fdb3 	bl	3ac <ADC0_DriverIRQHandler>
    3846:	bd08      	pop	{r3, pc}

00003848 <SINC_FILTER_IRQHandler>:
    3848:	b508      	push	{r3, lr}
    384a:	f7fc fdaf 	bl	3ac <ADC0_DriverIRQHandler>
    384e:	bd08      	pop	{r3, pc}

00003850 <LPTMR0_IRQHandler>:
    3850:	b508      	push	{r3, lr}
    3852:	f7fc fdab 	bl	3ac <ADC0_DriverIRQHandler>
    3856:	bd08      	pop	{r3, pc}

00003858 <LPTMR1_IRQHandler>:
    3858:	b508      	push	{r3, lr}
    385a:	f7fc fda7 	bl	3ac <ADC0_DriverIRQHandler>
    385e:	bd08      	pop	{r3, pc}

00003860 <SCG_IRQHandler>:
    3860:	b508      	push	{r3, lr}
    3862:	f7fc fda3 	bl	3ac <ADC0_DriverIRQHandler>
    3866:	bd08      	pop	{r3, pc}

00003868 <SPC_IRQHandler>:
    3868:	b508      	push	{r3, lr}
    386a:	f7fc fd9f 	bl	3ac <ADC0_DriverIRQHandler>
    386e:	bd08      	pop	{r3, pc}

00003870 <WUU_IRQHandler>:
    3870:	b508      	push	{r3, lr}
    3872:	f7fc fd9b 	bl	3ac <ADC0_DriverIRQHandler>
    3876:	bd08      	pop	{r3, pc}

00003878 <PORT_EFT_IRQHandler>:
    3878:	b508      	push	{r3, lr}
    387a:	f7fc fd97 	bl	3ac <ADC0_DriverIRQHandler>
    387e:	bd08      	pop	{r3, pc}

00003880 <ETB0_IRQHandler>:
    3880:	b508      	push	{r3, lr}
    3882:	f7fc fd93 	bl	3ac <ADC0_DriverIRQHandler>
    3886:	bd08      	pop	{r3, pc}

00003888 <SM3_IRQHandler>:
    3888:	b508      	push	{r3, lr}
    388a:	f7fc fd8f 	bl	3ac <ADC0_DriverIRQHandler>
    388e:	bd08      	pop	{r3, pc}

00003890 <TRNG0_IRQHandler>:
    3890:	b508      	push	{r3, lr}
    3892:	f7fc fd8b 	bl	3ac <ADC0_DriverIRQHandler>
    3896:	bd08      	pop	{r3, pc}

00003898 <WWDT0_IRQHandler>:
    3898:	b508      	push	{r3, lr}
    389a:	f7fc fd87 	bl	3ac <ADC0_DriverIRQHandler>
    389e:	bd08      	pop	{r3, pc}

000038a0 <WWDT1_IRQHandler>:
    38a0:	b508      	push	{r3, lr}
    38a2:	f7fc fd83 	bl	3ac <ADC0_DriverIRQHandler>
    38a6:	bd08      	pop	{r3, pc}

000038a8 <CMC0_IRQHandler>:
    38a8:	b508      	push	{r3, lr}
    38aa:	f7fc fd7f 	bl	3ac <ADC0_DriverIRQHandler>
    38ae:	bd08      	pop	{r3, pc}

000038b0 <CTI0_IRQHandler>:
    38b0:	b508      	push	{r3, lr}
    38b2:	f7fc fd7b 	bl	3ac <ADC0_DriverIRQHandler>
    38b6:	bd08      	pop	{r3, pc}

000038b8 <CLOCK_EnableClock>:
    38b8:	b480      	push	{r7}
    38ba:	b085      	sub	sp, #20
    38bc:	af00      	add	r7, sp, #0
    38be:	4603      	mov	r3, r0
    38c0:	80fb      	strh	r3, [r7, #6]
    38c2:	88fb      	ldrh	r3, [r7, #6]
    38c4:	0a1b      	lsrs	r3, r3, #8
    38c6:	60fb      	str	r3, [r7, #12]
    38c8:	88fb      	ldrh	r3, [r7, #6]
    38ca:	b2db      	uxtb	r3, r3
    38cc:	60bb      	str	r3, [r7, #8]
    38ce:	88fb      	ldrh	r3, [r7, #6]
    38d0:	2b00      	cmp	r3, #0
    38d2:	d035      	beq.n	3940 <CLOCK_EnableClock+0x88>
    38d4:	68fb      	ldr	r3, [r7, #12]
    38d6:	2bfa      	cmp	r3, #250	@ 0xfa
    38d8:	d112      	bne.n	3900 <CLOCK_EnableClock+0x48>
    38da:	f04f 4380 	mov.w	r3, #1073741824	@ 0x40000000
    38de:	f8d3 2e38 	ldr.w	r2, [r3, #3640]	@ 0xe38
    38e2:	2101      	movs	r1, #1
    38e4:	68bb      	ldr	r3, [r7, #8]
    38e6:	fa01 f303 	lsl.w	r3, r1, r3
    38ea:	f04f 4180 	mov.w	r1, #1073741824	@ 0x40000000
    38ee:	4313      	orrs	r3, r2
    38f0:	f8c1 3e38 	str.w	r3, [r1, #3640]	@ 0xe38
    38f4:	f04f 4380 	mov.w	r3, #1073741824	@ 0x40000000
    38f8:	2240      	movs	r2, #64	@ 0x40
    38fa:	f8c3 222c 	str.w	r2, [r3, #556]	@ 0x22c
    38fe:	e020      	b.n	3942 <CLOCK_EnableClock+0x8a>
    3900:	68fb      	ldr	r3, [r7, #12]
    3902:	2bfb      	cmp	r3, #251	@ 0xfb
    3904:	d112      	bne.n	392c <CLOCK_EnableClock+0x74>
    3906:	f04f 4380 	mov.w	r3, #1073741824	@ 0x40000000
    390a:	f8d3 2e3c 	ldr.w	r2, [r3, #3644]	@ 0xe3c
    390e:	2101      	movs	r1, #1
    3910:	68bb      	ldr	r3, [r7, #8]
    3912:	fa01 f303 	lsl.w	r3, r1, r3
    3916:	f04f 4180 	mov.w	r1, #1073741824	@ 0x40000000
    391a:	4313      	orrs	r3, r2
    391c:	f8c1 3e3c 	str.w	r3, [r1, #3644]	@ 0xe3c
    3920:	f04f 4380 	mov.w	r3, #1073741824	@ 0x40000000
    3924:	2280      	movs	r2, #128	@ 0x80
    3926:	f8c3 222c 	str.w	r2, [r3, #556]	@ 0x22c
    392a:	e00a      	b.n	3942 <CLOCK_EnableClock+0x8a>
    392c:	f04f 4180 	mov.w	r1, #1073741824	@ 0x40000000
    3930:	2201      	movs	r2, #1
    3932:	68bb      	ldr	r3, [r7, #8]
    3934:	409a      	lsls	r2, r3
    3936:	68fb      	ldr	r3, [r7, #12]
    3938:	3388      	adds	r3, #136	@ 0x88
    393a:	f841 2023 	str.w	r2, [r1, r3, lsl #2]
    393e:	e000      	b.n	3942 <CLOCK_EnableClock+0x8a>
    3940:	bf00      	nop
    3942:	3714      	adds	r7, #20
    3944:	46bd      	mov	sp, r7
    3946:	f85d 7b04 	ldr.w	r7, [sp], #4
    394a:	4770      	bx	lr

0000394c <EnableIRQ>:
    394c:	b580      	push	{r7, lr}
    394e:	b084      	sub	sp, #16
    3950:	af00      	add	r7, sp, #0
    3952:	4603      	mov	r3, r0
    3954:	80fb      	strh	r3, [r7, #6]
    3956:	2300      	movs	r3, #0
    3958:	60fb      	str	r3, [r7, #12]
    395a:	f9b7 3006 	ldrsh.w	r3, [r7, #6]
    395e:	f113 0f80 	cmn.w	r3, #128	@ 0x80
    3962:	d102      	bne.n	396a <EnableIRQ+0x1e>
    3964:	2301      	movs	r3, #1
    3966:	60fb      	str	r3, [r7, #12]
    3968:	e004      	b.n	3974 <EnableIRQ+0x28>
    396a:	f9b7 3006 	ldrsh.w	r3, [r7, #6]
    396e:	4618      	mov	r0, r3
    3970:	f7fc ff3e 	bl	7f0 <__NVIC_EnableIRQ>
    3974:	68fb      	ldr	r3, [r7, #12]
    3976:	4618      	mov	r0, r3
    3978:	3710      	adds	r7, #16
    397a:	46bd      	mov	sp, r7
    397c:	bd80      	pop	{r7, pc}

0000397e <DisableIRQ>:
    397e:	b580      	push	{r7, lr}
    3980:	b084      	sub	sp, #16
    3982:	af00      	add	r7, sp, #0
    3984:	4603      	mov	r3, r0
    3986:	80fb      	strh	r3, [r7, #6]
    3988:	2300      	movs	r3, #0
    398a:	60fb      	str	r3, [r7, #12]
    398c:	f9b7 3006 	ldrsh.w	r3, [r7, #6]
    3990:	f113 0f80 	cmn.w	r3, #128	@ 0x80
    3994:	d102      	bne.n	399c <DisableIRQ+0x1e>
    3996:	2301      	movs	r3, #1
    3998:	60fb      	str	r3, [r7, #12]
    399a:	e004      	b.n	39a6 <DisableIRQ+0x28>
    399c:	f9b7 3006 	ldrsh.w	r3, [r7, #6]
    39a0:	4618      	mov	r0, r3
    39a2:	f7fc ff43 	bl	82c <__NVIC_DisableIRQ>
    39a6:	68fb      	ldr	r3, [r7, #12]
    39a8:	4618      	mov	r0, r3
    39aa:	3710      	adds	r7, #16
    39ac:	46bd      	mov	sp, r7
    39ae:	bd80      	pop	{r7, pc}

000039b0 <PORT_SetPinMux>:
    39b0:	b480      	push	{r7}
    39b2:	b085      	sub	sp, #20
    39b4:	af00      	add	r7, sp, #0
    39b6:	60f8      	str	r0, [r7, #12]
    39b8:	60b9      	str	r1, [r7, #8]
    39ba:	4613      	mov	r3, r2
    39bc:	71fb      	strb	r3, [r7, #7]
    39be:	68fb      	ldr	r3, [r7, #12]
    39c0:	68ba      	ldr	r2, [r7, #8]
    39c2:	3220      	adds	r2, #32
    39c4:	f853 3022 	ldr.w	r3, [r3, r2, lsl #2]
    39c8:	f423 6270 	bic.w	r2, r3, #3840	@ 0xf00
    39cc:	79fb      	ldrb	r3, [r7, #7]
    39ce:	021b      	lsls	r3, r3, #8
    39d0:	f403 6370 	and.w	r3, r3, #3840	@ 0xf00
    39d4:	ea42 0103 	orr.w	r1, r2, r3
    39d8:	68fb      	ldr	r3, [r7, #12]
    39da:	68ba      	ldr	r2, [r7, #8]
    39dc:	3220      	adds	r2, #32
    39de:	f843 1022 	str.w	r1, [r3, r2, lsl #2]
    39e2:	bf00      	nop
    39e4:	3714      	adds	r7, #20
    39e6:	46bd      	mov	sp, r7
    39e8:	f85d 7b04 	ldr.w	r7, [sp], #4
    39ec:	4770      	bx	lr

000039ee <E_NOP>:
    39ee:	b580      	push	{r7, lr}
    39f0:	af00      	add	r7, sp, #0
    39f2:	2012      	movs	r0, #18
    39f4:	f7fc fec2 	bl	77c <ezbuild_add_instruction>
    39f8:	bf00      	nop
    39fa:	bd80      	pop	{r7, pc}

000039fc <E_LDR>:
    39fc:	b580      	push	{r7, lr}
    39fe:	b084      	sub	sp, #16
    3a00:	af00      	add	r7, sp, #0
    3a02:	60f8      	str	r0, [r7, #12]
    3a04:	60b9      	str	r1, [r7, #8]
    3a06:	607a      	str	r2, [r7, #4]
    3a08:	68fb      	ldr	r3, [r7, #12]
    3a0a:	029a      	lsls	r2, r3, #10
    3a0c:	68bb      	ldr	r3, [r7, #8]
    3a0e:	039b      	lsls	r3, r3, #14
    3a10:	441a      	add	r2, r3
    3a12:	687b      	ldr	r3, [r7, #4]
    3a14:	061b      	lsls	r3, r3, #24
    3a16:	4413      	add	r3, r2
    3a18:	f503 2380 	add.w	r3, r3, #262144	@ 0x40000
    3a1c:	3301      	adds	r3, #1
    3a1e:	4618      	mov	r0, r3
    3a20:	f7fc feac 	bl	77c <ezbuild_add_instruction>
    3a24:	bf00      	nop
    3a26:	3710      	adds	r7, #16
    3a28:	46bd      	mov	sp, r7
    3a2a:	bd80      	pop	{r7, pc}

00003a2c <E_PER_READ>:
    3a2c:	b580      	push	{r7, lr}
    3a2e:	b082      	sub	sp, #8
    3a30:	af00      	add	r7, sp, #0
    3a32:	6078      	str	r0, [r7, #4]
    3a34:	6039      	str	r1, [r7, #0]
    3a36:	687b      	ldr	r3, [r7, #4]
    3a38:	029a      	lsls	r2, r3, #10
    3a3a:	683b      	ldr	r3, [r7, #0]
    3a3c:	031b      	lsls	r3, r3, #12
    3a3e:	f423 537f 	bic.w	r3, r3, #16320	@ 0x3fc0
    3a42:	f023 033f 	bic.w	r3, r3, #63	@ 0x3f
    3a46:	4413      	add	r3, r2
    3a48:	3304      	adds	r3, #4
    3a4a:	4618      	mov	r0, r3
    3a4c:	f7fc fe96 	bl	77c <ezbuild_add_instruction>
    3a50:	bf00      	nop
    3a52:	3708      	adds	r7, #8
    3a54:	46bd      	mov	sp, r7
    3a56:	bd80      	pop	{r7, pc}

00003a58 <E_COND_ADD>:
    3a58:	b580      	push	{r7, lr}
    3a5a:	b084      	sub	sp, #16
    3a5c:	af00      	add	r7, sp, #0
    3a5e:	60f8      	str	r0, [r7, #12]
    3a60:	60b9      	str	r1, [r7, #8]
    3a62:	607a      	str	r2, [r7, #4]
    3a64:	603b      	str	r3, [r7, #0]
    3a66:	68bb      	ldr	r3, [r7, #8]
    3a68:	029a      	lsls	r2, r3, #10
    3a6a:	687b      	ldr	r3, [r7, #4]
    3a6c:	039b      	lsls	r3, r3, #14
    3a6e:	441a      	add	r2, r3
    3a70:	683b      	ldr	r3, [r7, #0]
    3a72:	051b      	lsls	r3, r3, #20
    3a74:	441a      	add	r2, r3
    3a76:	68fb      	ldr	r3, [r7, #12]
    3a78:	015b      	lsls	r3, r3, #5
    3a7a:	4413      	add	r3, r2
    3a7c:	3306      	adds	r3, #6
    3a7e:	4618      	mov	r0, r3
    3a80:	f7fc fe7c 	bl	77c <ezbuild_add_instruction>
    3a84:	bf00      	nop
    3a86:	3710      	adds	r7, #16
    3a88:	46bd      	mov	sp, r7
    3a8a:	bd80      	pop	{r7, pc}

00003a8c <E_ADD_IMM>:
    3a8c:	b580      	push	{r7, lr}
    3a8e:	b084      	sub	sp, #16
    3a90:	af00      	add	r7, sp, #0
    3a92:	60f8      	str	r0, [r7, #12]
    3a94:	60b9      	str	r1, [r7, #8]
    3a96:	607a      	str	r2, [r7, #4]
    3a98:	68fb      	ldr	r3, [r7, #12]
    3a9a:	029a      	lsls	r2, r3, #10
    3a9c:	68bb      	ldr	r3, [r7, #8]
    3a9e:	039b      	lsls	r3, r3, #14
    3aa0:	441a      	add	r2, r3
    3aa2:	687b      	ldr	r3, [r7, #4]
    3aa4:	051b      	lsls	r3, r3, #20
    3aa6:	4413      	add	r3, r2
    3aa8:	f503 2380 	add.w	r3, r3, #262144	@ 0x40000
    3aac:	3306      	adds	r3, #6
    3aae:	4618      	mov	r0, r3
    3ab0:	f7fc fe64 	bl	77c <ezbuild_add_instruction>
    3ab4:	bf00      	nop
    3ab6:	3710      	adds	r7, #16
    3ab8:	46bd      	mov	sp, r7
    3aba:	bd80      	pop	{r7, pc}

00003abc <E_AND_IMM>:
    3abc:	b580      	push	{r7, lr}
    3abe:	b084      	sub	sp, #16
    3ac0:	af00      	add	r7, sp, #0
    3ac2:	60f8      	str	r0, [r7, #12]
    3ac4:	60b9      	str	r1, [r7, #8]
    3ac6:	607a      	str	r2, [r7, #4]
    3ac8:	68fb      	ldr	r3, [r7, #12]
    3aca:	029a      	lsls	r2, r3, #10
    3acc:	68bb      	ldr	r3, [r7, #8]
    3ace:	039b      	lsls	r3, r3, #14
    3ad0:	441a      	add	r2, r3
    3ad2:	687b      	ldr	r3, [r7, #4]
    3ad4:	051b      	lsls	r3, r3, #20
    3ad6:	4413      	add	r3, r2
    3ad8:	f503 2380 	add.w	r3, r3, #262144	@ 0x40000
    3adc:	330d      	adds	r3, #13
    3ade:	4618      	mov	r0, r3
    3ae0:	f7fc fe4c 	bl	77c <ezbuild_add_instruction>
    3ae4:	bf00      	nop
    3ae6:	3710      	adds	r7, #16
    3ae8:	46bd      	mov	sp, r7
    3aea:	bd80      	pop	{r7, pc}

00003aec <E_LSL>:
    3aec:	b580      	push	{r7, lr}
    3aee:	b084      	sub	sp, #16
    3af0:	af00      	add	r7, sp, #0
    3af2:	60f8      	str	r0, [r7, #12]
    3af4:	60b9      	str	r1, [r7, #8]
    3af6:	607a      	str	r2, [r7, #4]
    3af8:	68fb      	ldr	r3, [r7, #12]
    3afa:	029a      	lsls	r2, r3, #10
    3afc:	68bb      	ldr	r3, [r7, #8]
    3afe:	051b      	lsls	r3, r3, #20
    3b00:	441a      	add	r2, r3
    3b02:	687b      	ldr	r3, [r7, #4]
    3b04:	061b      	lsls	r3, r3, #24
    3b06:	f003 53f8 	and.w	r3, r3, #520093696	@ 0x1f000000
    3b0a:	4413      	add	r3, r2
    3b0c:	3310      	adds	r3, #16
    3b0e:	4618      	mov	r0, r3
    3b10:	f7fc fe34 	bl	77c <ezbuild_add_instruction>
    3b14:	bf00      	nop
    3b16:	3710      	adds	r7, #16
    3b18:	46bd      	mov	sp, r7
    3b1a:	bd80      	pop	{r7, pc}

00003b1c <E_LSR>:
    3b1c:	b580      	push	{r7, lr}
    3b1e:	b084      	sub	sp, #16
    3b20:	af00      	add	r7, sp, #0
    3b22:	60f8      	str	r0, [r7, #12]
    3b24:	60b9      	str	r1, [r7, #8]
    3b26:	607a      	str	r2, [r7, #4]
    3b28:	68fb      	ldr	r3, [r7, #12]
    3b2a:	029a      	lsls	r2, r3, #10
    3b2c:	68bb      	ldr	r3, [r7, #8]
    3b2e:	051b      	lsls	r3, r3, #20
    3b30:	441a      	add	r2, r3
    3b32:	687b      	ldr	r3, [r7, #4]
    3b34:	061b      	lsls	r3, r3, #24
    3b36:	f003 53f8 	and.w	r3, r3, #520093696	@ 0x1f000000
    3b3a:	4413      	add	r3, r2
    3b3c:	f503 2300 	add.w	r3, r3, #524288	@ 0x80000
    3b40:	3310      	adds	r3, #16
    3b42:	4618      	mov	r0, r3
    3b44:	f7fc fe1a 	bl	77c <ezbuild_add_instruction>
    3b48:	bf00      	nop
    3b4a:	3710      	adds	r7, #16
    3b4c:	46bd      	mov	sp, r7
    3b4e:	bd80      	pop	{r7, pc}

00003b50 <E_BCLR_IMM>:
    3b50:	b580      	push	{r7, lr}
    3b52:	b084      	sub	sp, #16
    3b54:	af00      	add	r7, sp, #0
    3b56:	60f8      	str	r0, [r7, #12]
    3b58:	60b9      	str	r1, [r7, #8]
    3b5a:	607a      	str	r2, [r7, #4]
    3b5c:	68fb      	ldr	r3, [r7, #12]
    3b5e:	029a      	lsls	r2, r3, #10
    3b60:	68bb      	ldr	r3, [r7, #8]
    3b62:	039b      	lsls	r3, r3, #14
    3b64:	441a      	add	r2, r3
    3b66:	687b      	ldr	r3, [r7, #4]
    3b68:	061b      	lsls	r3, r3, #24
    3b6a:	f003 53f8 	and.w	r3, r3, #520093696	@ 0x1f000000
    3b6e:	4413      	add	r3, r2
    3b70:	f103 5300 	add.w	r3, r3, #536870912	@ 0x20000000
    3b74:	3318      	adds	r3, #24
    3b76:	4618      	mov	r0, r3
    3b78:	f7fc fe00 	bl	77c <ezbuild_add_instruction>
    3b7c:	bf00      	nop
    3b7e:	3710      	adds	r7, #16
    3b80:	46bd      	mov	sp, r7
    3b82:	bd80      	pop	{r7, pc}

00003b84 <E_BSET_IMM>:
    3b84:	b580      	push	{r7, lr}
    3b86:	b084      	sub	sp, #16
    3b88:	af00      	add	r7, sp, #0
    3b8a:	60f8      	str	r0, [r7, #12]
    3b8c:	60b9      	str	r1, [r7, #8]
    3b8e:	607a      	str	r2, [r7, #4]
    3b90:	68fb      	ldr	r3, [r7, #12]
    3b92:	029a      	lsls	r2, r3, #10
    3b94:	68bb      	ldr	r3, [r7, #8]
    3b96:	039b      	lsls	r3, r3, #14
    3b98:	441a      	add	r2, r3
    3b9a:	687b      	ldr	r3, [r7, #4]
    3b9c:	061b      	lsls	r3, r3, #24
    3b9e:	f003 53f8 	and.w	r3, r3, #520093696	@ 0x1f000000
    3ba2:	4413      	add	r3, r2
    3ba4:	f103 4340 	add.w	r3, r3, #3221225472	@ 0xc0000000
    3ba8:	3318      	adds	r3, #24
    3baa:	4618      	mov	r0, r3
    3bac:	f7fc fde6 	bl	77c <ezbuild_add_instruction>
    3bb0:	bf00      	nop
    3bb2:	3710      	adds	r7, #16
    3bb4:	46bd      	mov	sp, r7
    3bb6:	bd80      	pop	{r7, pc}

00003bb8 <E_BTST_IMMS>:
    3bb8:	b580      	push	{r7, lr}
    3bba:	b084      	sub	sp, #16
    3bbc:	af00      	add	r7, sp, #0
    3bbe:	60f8      	str	r0, [r7, #12]
    3bc0:	60b9      	str	r1, [r7, #8]
    3bc2:	607a      	str	r2, [r7, #4]
    3bc4:	68fb      	ldr	r3, [r7, #12]
    3bc6:	029a      	lsls	r2, r3, #10
    3bc8:	68bb      	ldr	r3, [r7, #8]
    3bca:	039b      	lsls	r3, r3, #14
    3bcc:	441a      	add	r2, r3
    3bce:	687b      	ldr	r3, [r7, #4]
    3bd0:	061b      	lsls	r3, r3, #24
    3bd2:	f003 53f8 	and.w	r3, r3, #520093696	@ 0x1f000000
    3bd6:	4413      	add	r3, r2
    3bd8:	f103 4320 	add.w	r3, r3, #2684354560	@ 0xa0000000
    3bdc:	f503 7306 	add.w	r3, r3, #536	@ 0x218
    3be0:	4618      	mov	r0, r3
    3be2:	f7fc fdcb 	bl	77c <ezbuild_add_instruction>
    3be6:	bf00      	nop
    3be8:	3710      	adds	r7, #16
    3bea:	46bd      	mov	sp, r7
    3bec:	bd80      	pop	{r7, pc}

00003bee <E_HEART_RYTHM_IMM>:
    3bee:	b580      	push	{r7, lr}
    3bf0:	b082      	sub	sp, #8
    3bf2:	af00      	add	r7, sp, #0
    3bf4:	6078      	str	r0, [r7, #4]
    3bf6:	687b      	ldr	r3, [r7, #4]
    3bf8:	041b      	lsls	r3, r3, #16
    3bfa:	3332      	adds	r3, #50	@ 0x32
    3bfc:	4618      	mov	r0, r3
    3bfe:	f7fc fdbd 	bl	77c <ezbuild_add_instruction>
    3c02:	bf00      	nop
    3c04:	3708      	adds	r7, #8
    3c06:	46bd      	mov	sp, r7
    3c08:	bd80      	pop	{r7, pc}

00003c0a <E_WAIT_FOR_BEAT>:
    3c0a:	b580      	push	{r7, lr}
    3c0c:	af00      	add	r7, sp, #0
    3c0e:	2072      	movs	r0, #114	@ 0x72
    3c10:	f7fc fdb4 	bl	77c <ezbuild_add_instruction>
    3c14:	bf00      	nop
    3c16:	bd80      	pop	{r7, pc}

00003c18 <SMARTDMA_DriverIRQHandler>:
    3c18:	b480      	push	{r7}
    3c1a:	af00      	add	r7, sp, #0
    3c1c:	bf00      	nop
    3c1e:	46bd      	mov	sp, r7
    3c20:	f85d 7b04 	ldr.w	r7, [sp], #4
    3c24:	4770      	bx	lr

00003c26 <HardFault_Handler>:
    3c26:	2004      	movs	r0, #4
    3c28:	4671      	mov	r1, lr
    3c2a:	4208      	tst	r0, r1
    3c2c:	d002      	beq.n	3c34 <_MSP>
    3c2e:	f3ef 8009 	mrs	r0, PSP
    3c32:	e001      	b.n	3c38 <_process>

00003c34 <_MSP>:
    3c34:	f3ef 8008 	mrs	r0, MSP

00003c38 <_process>:
    3c38:	6981      	ldr	r1, [r0, #24]
    3c3a:	880a      	ldrh	r2, [r1, #0]
    3c3c:	f64b 63ab 	movw	r3, #48811	@ 0xbeab
    3c40:	429a      	cmp	r2, r3
    3c42:	d000      	beq.n	3c46 <_semihost_return>
    3c44:	e7fe      	b.n	3c44 <_process+0xc>

00003c46 <_semihost_return>:
    3c46:	3102      	adds	r1, #2
    3c48:	6181      	str	r1, [r0, #24]
    3c4a:	6801      	ldr	r1, [r0, #0]
    3c4c:	2901      	cmp	r1, #1
    3c4e:	d001      	beq.n	3c54 <_non_zero_ret>
    3c50:	2100      	movs	r1, #0
    3c52:	e000      	b.n	3c56 <_sys_ret>

00003c54 <_non_zero_ret>:
    3c54:	2120      	movs	r1, #32

00003c56 <_sys_ret>:
    3c56:	6001      	str	r1, [r0, #0]
    3c58:	4770      	bx	lr
    3c5a:	bf00      	nop

00003c5c <CLOCK_GetPll0OutFreq>:
    3c5c:	b580      	push	{r7, lr}
    3c5e:	ed2d 8b02 	vpush	{d8}
    3c62:	b084      	sub	sp, #16
    3c64:	af00      	add	r7, sp, #0
    3c66:	2300      	movs	r3, #0
    3c68:	60bb      	str	r3, [r7, #8]
    3c6a:	f04f 0300 	mov.w	r3, #0
    3c6e:	60fb      	str	r3, [r7, #12]
    3c70:	f7fd f8d0 	bl	e14 <CLOCK_GetPLL0InClockRate>
    3c74:	60b8      	str	r0, [r7, #8]
    3c76:	f7fc ff57 	bl	b28 <CLOCK_IsPLL0Locked>
    3c7a:	4603      	mov	r3, r0
    3c7c:	2b00      	cmp	r3, #0
    3c7e:	d022      	beq.n	3cc6 <CLOCK_GetPll0OutFreq+0x6a>
    3c80:	f7fd f9cc 	bl	101c <findPll0PreDiv>
    3c84:	6078      	str	r0, [r7, #4]
    3c86:	f7fd f9e9 	bl	105c <findPll0PostDiv>
    3c8a:	6038      	str	r0, [r7, #0]
    3c8c:	68ba      	ldr	r2, [r7, #8]
    3c8e:	687b      	ldr	r3, [r7, #4]
    3c90:	fbb2 f3f3 	udiv	r3, r2, r3
    3c94:	60bb      	str	r3, [r7, #8]
    3c96:	68bb      	ldr	r3, [r7, #8]
    3c98:	ee07 3a90 	vmov	s15, r3
    3c9c:	eeb8 8a67 	vcvt.f32.u32	s16, s15
    3ca0:	f7fd fa0c 	bl	10bc <findPll0MMult>
    3ca4:	eef0 7a40 	vmov.f32	s15, s0
    3ca8:	ee68 7a27 	vmul.f32	s15, s16, s15
    3cac:	edc7 7a03 	vstr	s15, [r7, #12]
    3cb0:	683b      	ldr	r3, [r7, #0]
    3cb2:	ee07 3a90 	vmov	s15, r3
    3cb6:	eeb8 7a67 	vcvt.f32.u32	s14, s15
    3cba:	edd7 6a03 	vldr	s13, [r7, #12]
    3cbe:	eec6 7a87 	vdiv.f32	s15, s13, s14
    3cc2:	edc7 7a03 	vstr	s15, [r7, #12]
    3cc6:	edd7 7a03 	vldr	s15, [r7, #12]
    3cca:	eefc 7ae7 	vcvt.u32.f32	s15, s15
    3cce:	ee17 3a90 	vmov	r3, s15
    3cd2:	4618      	mov	r0, r3
    3cd4:	3710      	adds	r7, #16
    3cd6:	46bd      	mov	sp, r7
    3cd8:	ecbd 8b02 	vpop	{d8}
    3cdc:	bd80      	pop	{r7, pc}

00003cde <CLOCK_EnableClock>:
    3cde:	b480      	push	{r7}
    3ce0:	b085      	sub	sp, #20
    3ce2:	af00      	add	r7, sp, #0
    3ce4:	4603      	mov	r3, r0
    3ce6:	80fb      	strh	r3, [r7, #6]
    3ce8:	88fb      	ldrh	r3, [r7, #6]
    3cea:	0a1b      	lsrs	r3, r3, #8
    3cec:	60fb      	str	r3, [r7, #12]
    3cee:	88fb      	ldrh	r3, [r7, #6]
    3cf0:	b2db      	uxtb	r3, r3
    3cf2:	60bb      	str	r3, [r7, #8]
    3cf4:	88fb      	ldrh	r3, [r7, #6]
    3cf6:	2b00      	cmp	r3, #0
    3cf8:	d035      	beq.n	3d66 <CLOCK_EnableClock+0x88>
    3cfa:	68fb      	ldr	r3, [r7, #12]
    3cfc:	2bfa      	cmp	r3, #250	@ 0xfa
    3cfe:	d112      	bne.n	3d26 <CLOCK_EnableClock+0x48>
    3d00:	f04f 4380 	mov.w	r3, #1073741824	@ 0x40000000
    3d04:	f8d3 2e38 	ldr.w	r2, [r3, #3640]	@ 0xe38
    3d08:	2101      	movs	r1, #1
    3d0a:	68bb      	ldr	r3, [r7, #8]
    3d0c:	fa01 f303 	lsl.w	r3, r1, r3
    3d10:	f04f 4180 	mov.w	r1, #1073741824	@ 0x40000000
    3d14:	4313      	orrs	r3, r2
    3d16:	f8c1 3e38 	str.w	r3, [r1, #3640]	@ 0xe38
    3d1a:	f04f 4380 	mov.w	r3, #1073741824	@ 0x40000000
    3d1e:	2240      	movs	r2, #64	@ 0x40
    3d20:	f8c3 222c 	str.w	r2, [r3, #556]	@ 0x22c
    3d24:	e020      	b.n	3d68 <CLOCK_EnableClock+0x8a>
    3d26:	68fb      	ldr	r3, [r7, #12]
    3d28:	2bfb      	cmp	r3, #251	@ 0xfb
    3d2a:	d112      	bne.n	3d52 <CLOCK_EnableClock+0x74>
    3d2c:	f04f 4380 	mov.w	r3, #1073741824	@ 0x40000000
    3d30:	f8d3 2e3c 	ldr.w	r2, [r3, #3644]	@ 0xe3c
    3d34:	2101      	movs	r1, #1
    3d36:	68bb      	ldr	r3, [r7, #8]
    3d38:	fa01 f303 	lsl.w	r3, r1, r3
    3d3c:	f04f 4180 	mov.w	r1, #1073741824	@ 0x40000000
    3d40:	4313      	orrs	r3, r2
    3d42:	f8c1 3e3c 	str.w	r3, [r1, #3644]	@ 0xe3c
    3d46:	f04f 4380 	mov.w	r3, #1073741824	@ 0x40000000
    3d4a:	2280      	movs	r2, #128	@ 0x80
    3d4c:	f8c3 222c 	str.w	r2, [r3, #556]	@ 0x22c
    3d50:	e00a      	b.n	3d68 <CLOCK_EnableClock+0x8a>
    3d52:	f04f 4180 	mov.w	r1, #1073741824	@ 0x40000000
    3d56:	2201      	movs	r2, #1
    3d58:	68bb      	ldr	r3, [r7, #8]
    3d5a:	409a      	lsls	r2, r3
    3d5c:	68fb      	ldr	r3, [r7, #12]
    3d5e:	3388      	adds	r3, #136	@ 0x88
    3d60:	f841 2023 	str.w	r2, [r1, r3, lsl #2]
    3d64:	e000      	b.n	3d68 <CLOCK_EnableClock+0x8a>
    3d66:	bf00      	nop
    3d68:	3714      	adds	r7, #20
    3d6a:	46bd      	mov	sp, r7
    3d6c:	f85d 7b04 	ldr.w	r7, [sp], #4
    3d70:	4770      	bx	lr

00003d72 <LP_FLEXCOMM_PeripheralIsPresent>:
    3d72:	b480      	push	{r7}
    3d74:	b083      	sub	sp, #12
    3d76:	af00      	add	r7, sp, #0
    3d78:	6078      	str	r0, [r7, #4]
    3d7a:	460b      	mov	r3, r1
    3d7c:	70fb      	strb	r3, [r7, #3]
    3d7e:	78fb      	ldrb	r3, [r7, #3]
    3d80:	2b00      	cmp	r3, #0
    3d82:	d101      	bne.n	3d88 <LP_FLEXCOMM_PeripheralIsPresent+0x16>
    3d84:	2301      	movs	r3, #1
    3d86:	e017      	b.n	3db8 <LP_FLEXCOMM_PeripheralIsPresent+0x46>
    3d88:	78fb      	ldrb	r3, [r7, #3]
    3d8a:	2b03      	cmp	r3, #3
    3d8c:	d80e      	bhi.n	3dac <LP_FLEXCOMM_PeripheralIsPresent+0x3a>
    3d8e:	687b      	ldr	r3, [r7, #4]
    3d90:	f8d3 2ff8 	ldr.w	r2, [r3, #4088]	@ 0xff8
    3d94:	78fb      	ldrb	r3, [r7, #3]
    3d96:	3303      	adds	r3, #3
    3d98:	fa22 f303 	lsr.w	r3, r2, r3
    3d9c:	f003 0301 	and.w	r3, r3, #1
    3da0:	2b00      	cmp	r3, #0
    3da2:	bf14      	ite	ne
    3da4:	2301      	movne	r3, #1
    3da6:	2300      	moveq	r3, #0
    3da8:	b2db      	uxtb	r3, r3
    3daa:	e005      	b.n	3db8 <LP_FLEXCOMM_PeripheralIsPresent+0x46>
    3dac:	78fb      	ldrb	r3, [r7, #3]
    3dae:	2b07      	cmp	r3, #7
    3db0:	d101      	bne.n	3db6 <LP_FLEXCOMM_PeripheralIsPresent+0x44>
    3db2:	2301      	movs	r3, #1
    3db4:	e000      	b.n	3db8 <LP_FLEXCOMM_PeripheralIsPresent+0x46>
    3db6:	2300      	movs	r3, #0
    3db8:	4618      	mov	r0, r3
    3dba:	370c      	adds	r7, #12
    3dbc:	46bd      	mov	sp, r7
    3dbe:	f85d 7b04 	ldr.w	r7, [sp], #4
    3dc2:	4770      	bx	lr

00003dc4 <LP_FLEXCOMM0_DriverIRQHandler>:
    3dc4:	b580      	push	{r7, lr}
    3dc6:	af00      	add	r7, sp, #0
    3dc8:	2000      	movs	r0, #0
    3dca:	f7fd fa57 	bl	127c <LP_FLEXCOMM_CommonIRQHandler>
    3dce:	bf00      	nop
    3dd0:	bd80      	pop	{r7, pc}

00003dd2 <LP_FLEXCOMM1_DriverIRQHandler>:
    3dd2:	b580      	push	{r7, lr}
    3dd4:	af00      	add	r7, sp, #0
    3dd6:	2001      	movs	r0, #1
    3dd8:	f7fd fa50 	bl	127c <LP_FLEXCOMM_CommonIRQHandler>
    3ddc:	bf00      	nop
    3dde:	bd80      	pop	{r7, pc}

00003de0 <LP_FLEXCOMM2_DriverIRQHandler>:
    3de0:	b580      	push	{r7, lr}
    3de2:	af00      	add	r7, sp, #0
    3de4:	2002      	movs	r0, #2
    3de6:	f7fd fa49 	bl	127c <LP_FLEXCOMM_CommonIRQHandler>
    3dea:	bf00      	nop
    3dec:	bd80      	pop	{r7, pc}

00003dee <LP_FLEXCOMM3_DriverIRQHandler>:
    3dee:	b580      	push	{r7, lr}
    3df0:	af00      	add	r7, sp, #0
    3df2:	2003      	movs	r0, #3
    3df4:	f7fd fa42 	bl	127c <LP_FLEXCOMM_CommonIRQHandler>
    3df8:	bf00      	nop
    3dfa:	bd80      	pop	{r7, pc}

00003dfc <LP_FLEXCOMM4_DriverIRQHandler>:
    3dfc:	b580      	push	{r7, lr}
    3dfe:	af00      	add	r7, sp, #0
    3e00:	2004      	movs	r0, #4
    3e02:	f7fd fa3b 	bl	127c <LP_FLEXCOMM_CommonIRQHandler>
    3e06:	bf00      	nop
    3e08:	bd80      	pop	{r7, pc}

00003e0a <LP_FLEXCOMM5_DriverIRQHandler>:
    3e0a:	b580      	push	{r7, lr}
    3e0c:	af00      	add	r7, sp, #0
    3e0e:	2005      	movs	r0, #5
    3e10:	f7fd fa34 	bl	127c <LP_FLEXCOMM_CommonIRQHandler>
    3e14:	bf00      	nop
    3e16:	bd80      	pop	{r7, pc}

00003e18 <LP_FLEXCOMM6_DriverIRQHandler>:
    3e18:	b580      	push	{r7, lr}
    3e1a:	af00      	add	r7, sp, #0
    3e1c:	2006      	movs	r0, #6
    3e1e:	f7fd fa2d 	bl	127c <LP_FLEXCOMM_CommonIRQHandler>
    3e22:	bf00      	nop
    3e24:	bd80      	pop	{r7, pc}

00003e26 <LP_FLEXCOMM7_DriverIRQHandler>:
    3e26:	b580      	push	{r7, lr}
    3e28:	af00      	add	r7, sp, #0
    3e2a:	2007      	movs	r0, #7
    3e2c:	f7fd fa26 	bl	127c <LP_FLEXCOMM_CommonIRQHandler>
    3e30:	bf00      	nop
    3e32:	bd80      	pop	{r7, pc}

00003e34 <LP_FLEXCOMM8_DriverIRQHandler>:
    3e34:	b580      	push	{r7, lr}
    3e36:	af00      	add	r7, sp, #0
    3e38:	2008      	movs	r0, #8
    3e3a:	f7fd fa1f 	bl	127c <LP_FLEXCOMM_CommonIRQHandler>
    3e3e:	bf00      	nop
    3e40:	bd80      	pop	{r7, pc}

00003e42 <LP_FLEXCOMM9_DriverIRQHandler>:
    3e42:	b580      	push	{r7, lr}
    3e44:	af00      	add	r7, sp, #0
    3e46:	2009      	movs	r0, #9
    3e48:	f7fd fa18 	bl	127c <LP_FLEXCOMM_CommonIRQHandler>
    3e4c:	bf00      	nop
    3e4e:	bd80      	pop	{r7, pc}

00003e50 <LPUART_SoftwareReset>:
    3e50:	b480      	push	{r7}
    3e52:	b083      	sub	sp, #12
    3e54:	af00      	add	r7, sp, #0
    3e56:	6078      	str	r0, [r7, #4]
    3e58:	687b      	ldr	r3, [r7, #4]
    3e5a:	689b      	ldr	r3, [r3, #8]
    3e5c:	f043 0202 	orr.w	r2, r3, #2
    3e60:	687b      	ldr	r3, [r7, #4]
    3e62:	609a      	str	r2, [r3, #8]
    3e64:	687b      	ldr	r3, [r7, #4]
    3e66:	689b      	ldr	r3, [r3, #8]
    3e68:	f023 0202 	bic.w	r2, r3, #2
    3e6c:	687b      	ldr	r3, [r7, #4]
    3e6e:	609a      	str	r2, [r3, #8]
    3e70:	bf00      	nop
    3e72:	370c      	adds	r7, #12
    3e74:	46bd      	mov	sp, r7
    3e76:	f85d 7b04 	ldr.w	r7, [sp], #4
    3e7a:	4770      	bx	lr

00003e7c <RESET_PeripheralReset>:
    3e7c:	b580      	push	{r7, lr}
    3e7e:	b082      	sub	sp, #8
    3e80:	af00      	add	r7, sp, #0
    3e82:	6078      	str	r0, [r7, #4]
    3e84:	6878      	ldr	r0, [r7, #4]
    3e86:	f7fd fcd7 	bl	1838 <RESET_SetPeripheralReset>
    3e8a:	6878      	ldr	r0, [r7, #4]
    3e8c:	f7fd fd06 	bl	189c <RESET_ClearPeripheralReset>
    3e90:	bf00      	nop
    3e92:	3708      	adds	r7, #8
    3e94:	46bd      	mov	sp, r7
    3e96:	bd80      	pop	{r7, pc}

00003e98 <SystemInitHook>:
    3e98:	b480      	push	{r7}
    3e9a:	af00      	add	r7, sp, #0
    3e9c:	bf00      	nop
    3e9e:	46bd      	mov	sp, r7
    3ea0:	f85d 7b04 	ldr.w	r7, [sp], #4
    3ea4:	4770      	bx	lr

00003ea6 <HAL_UartGetStatus>:
    3ea6:	b480      	push	{r7}
    3ea8:	b085      	sub	sp, #20
    3eaa:	af00      	add	r7, sp, #0
    3eac:	6078      	str	r0, [r7, #4]
    3eae:	687b      	ldr	r3, [r7, #4]
    3eb0:	2b00      	cmp	r3, #0
    3eb2:	d102      	bne.n	3eba <HAL_UartGetStatus+0x14>
    3eb4:	2300      	movs	r3, #0
    3eb6:	81fb      	strh	r3, [r7, #14]
    3eb8:	e002      	b.n	3ec0 <HAL_UartGetStatus+0x1a>
    3eba:	f642 73af 	movw	r3, #12207	@ 0x2faf
    3ebe:	81fb      	strh	r3, [r7, #14]
    3ec0:	89fb      	ldrh	r3, [r7, #14]
    3ec2:	4618      	mov	r0, r3
    3ec4:	3714      	adds	r7, #20
    3ec6:	46bd      	mov	sp, r7
    3ec8:	f85d 7b04 	ldr.w	r7, [sp], #4
    3ecc:	4770      	bx	lr

00003ece <DisableGlobalIRQ>:
    3ece:	b480      	push	{r7}
    3ed0:	b083      	sub	sp, #12
    3ed2:	af00      	add	r7, sp, #0
    3ed4:	f3ef 8310 	mrs	r3, PRIMASK
    3ed8:	603b      	str	r3, [r7, #0]
    3eda:	683b      	ldr	r3, [r7, #0]
    3edc:	607b      	str	r3, [r7, #4]
    3ede:	b672      	cpsid	i
    3ee0:	bf00      	nop
    3ee2:	687b      	ldr	r3, [r7, #4]
    3ee4:	4618      	mov	r0, r3
    3ee6:	370c      	adds	r7, #12
    3ee8:	46bd      	mov	sp, r7
    3eea:	f85d 7b04 	ldr.w	r7, [sp], #4
    3eee:	4770      	bx	lr

00003ef0 <EnableGlobalIRQ>:
    3ef0:	b480      	push	{r7}
    3ef2:	b085      	sub	sp, #20
    3ef4:	af00      	add	r7, sp, #0
    3ef6:	6078      	str	r0, [r7, #4]
    3ef8:	687b      	ldr	r3, [r7, #4]
    3efa:	60fb      	str	r3, [r7, #12]
    3efc:	68fb      	ldr	r3, [r7, #12]
    3efe:	f383 8810 	msr	PRIMASK, r3
    3f02:	bf00      	nop
    3f04:	bf00      	nop
    3f06:	3714      	adds	r7, #20
    3f08:	46bd      	mov	sp, r7
    3f0a:	f85d 7b04 	ldr.w	r7, [sp], #4
    3f0e:	4770      	bx	lr

00003f10 <SerialManager_StartWriting>:
    3f10:	b580      	push	{r7, lr}
    3f12:	b086      	sub	sp, #24
    3f14:	af00      	add	r7, sp, #0
    3f16:	60f8      	str	r0, [r7, #12]
    3f18:	60b9      	str	r1, [r7, #8]
    3f1a:	607a      	str	r2, [r7, #4]
    3f1c:	603b      	str	r3, [r7, #0]
    3f1e:	f243 5321 	movw	r3, #13601	@ 0x3521
    3f22:	82fb      	strh	r3, [r7, #22]
    3f24:	68fb      	ldr	r3, [r7, #12]
    3f26:	781b      	ldrb	r3, [r3, #0]
    3f28:	2b01      	cmp	r3, #1
    3f2a:	d108      	bne.n	3f3e <SerialManager_StartWriting+0x2e>
    3f2c:	68fb      	ldr	r3, [r7, #12]
    3f2e:	330c      	adds	r3, #12
    3f30:	683a      	ldr	r2, [r7, #0]
    3f32:	6879      	ldr	r1, [r7, #4]
    3f34:	4618      	mov	r0, r3
    3f36:	f000 f8e0 	bl	40fa <Serial_UartWrite>
    3f3a:	4603      	mov	r3, r0
    3f3c:	82fb      	strh	r3, [r7, #22]
    3f3e:	8afb      	ldrh	r3, [r7, #22]
    3f40:	4618      	mov	r0, r3
    3f42:	3718      	adds	r7, #24
    3f44:	46bd      	mov	sp, r7
    3f46:	bd80      	pop	{r7, pc}

00003f48 <SerialManager_Write>:
    3f48:	b580      	push	{r7, lr}
    3f4a:	b086      	sub	sp, #24
    3f4c:	af00      	add	r7, sp, #0
    3f4e:	60f8      	str	r0, [r7, #12]
    3f50:	60b9      	str	r1, [r7, #8]
    3f52:	607a      	str	r2, [r7, #4]
    3f54:	68fb      	ldr	r3, [r7, #12]
    3f56:	2b00      	cmp	r3, #0
    3f58:	d0fc      	beq.n	3f54 <SerialManager_Write+0xc>
    3f5a:	68bb      	ldr	r3, [r7, #8]
    3f5c:	2b00      	cmp	r3, #0
    3f5e:	d0fc      	beq.n	3f5a <SerialManager_Write+0x12>
    3f60:	687b      	ldr	r3, [r7, #4]
    3f62:	2b00      	cmp	r3, #0
    3f64:	d0fc      	beq.n	3f60 <SerialManager_Write+0x18>
    3f66:	68fb      	ldr	r3, [r7, #12]
    3f68:	617b      	str	r3, [r7, #20]
    3f6a:	697b      	ldr	r3, [r7, #20]
    3f6c:	681b      	ldr	r3, [r3, #0]
    3f6e:	613b      	str	r3, [r7, #16]
    3f70:	693b      	ldr	r3, [r7, #16]
    3f72:	2b00      	cmp	r3, #0
    3f74:	d0fc      	beq.n	3f70 <SerialManager_Write+0x28>
    3f76:	687b      	ldr	r3, [r7, #4]
    3f78:	68ba      	ldr	r2, [r7, #8]
    3f7a:	6979      	ldr	r1, [r7, #20]
    3f7c:	6938      	ldr	r0, [r7, #16]
    3f7e:	f7ff ffc7 	bl	3f10 <SerialManager_StartWriting>
    3f82:	4603      	mov	r3, r0
    3f84:	4618      	mov	r0, r3
    3f86:	3718      	adds	r7, #24
    3f88:	46bd      	mov	sp, r7
    3f8a:	bd80      	pop	{r7, pc}

00003f8c <SerialManager_Init>:
    3f8c:	b580      	push	{r7, lr}
    3f8e:	b084      	sub	sp, #16
    3f90:	af00      	add	r7, sp, #0
    3f92:	6078      	str	r0, [r7, #4]
    3f94:	6039      	str	r1, [r7, #0]
    3f96:	f243 5321 	movw	r3, #13601	@ 0x3521
    3f9a:	81fb      	strh	r3, [r7, #14]
    3f9c:	683b      	ldr	r3, [r7, #0]
    3f9e:	2b00      	cmp	r3, #0
    3fa0:	d0fc      	beq.n	3f9c <SerialManager_Init+0x10>
    3fa2:	687b      	ldr	r3, [r7, #4]
    3fa4:	2b00      	cmp	r3, #0
    3fa6:	d0fc      	beq.n	3fa2 <SerialManager_Init+0x16>
    3fa8:	bf00      	nop
    3faa:	687b      	ldr	r3, [r7, #4]
    3fac:	60bb      	str	r3, [r7, #8]
    3fae:	2214      	movs	r2, #20
    3fb0:	2100      	movs	r1, #0
    3fb2:	68b8      	ldr	r0, [r7, #8]
    3fb4:	f000 f96d 	bl	4292 <memset>
    3fb8:	683b      	ldr	r3, [r7, #0]
    3fba:	7a1a      	ldrb	r2, [r3, #8]
    3fbc:	68bb      	ldr	r3, [r7, #8]
    3fbe:	701a      	strb	r2, [r3, #0]
    3fc0:	683b      	ldr	r3, [r7, #0]
    3fc2:	7a1b      	ldrb	r3, [r3, #8]
    3fc4:	2b01      	cmp	r3, #1
    3fc6:	d10b      	bne.n	3fe0 <SerialManager_Init+0x54>
    3fc8:	68bb      	ldr	r3, [r7, #8]
    3fca:	f103 020c 	add.w	r2, r3, #12
    3fce:	683b      	ldr	r3, [r7, #0]
    3fd0:	68db      	ldr	r3, [r3, #12]
    3fd2:	4619      	mov	r1, r3
    3fd4:	4610      	mov	r0, r2
    3fd6:	f000 f871 	bl	40bc <Serial_UartInit>
    3fda:	4603      	mov	r3, r0
    3fdc:	81fb      	strh	r3, [r7, #14]
    3fde:	e000      	b.n	3fe2 <SerialManager_Init+0x56>
    3fe0:	bf00      	nop
    3fe2:	89fb      	ldrh	r3, [r7, #14]
    3fe4:	4618      	mov	r0, r3
    3fe6:	3710      	adds	r7, #16
    3fe8:	46bd      	mov	sp, r7
    3fea:	bd80      	pop	{r7, pc}

00003fec <SerialManager_OpenWriteHandle>:
    3fec:	b580      	push	{r7, lr}
    3fee:	b086      	sub	sp, #24
    3ff0:	af00      	add	r7, sp, #0
    3ff2:	6078      	str	r0, [r7, #4]
    3ff4:	6039      	str	r1, [r7, #0]
    3ff6:	687b      	ldr	r3, [r7, #4]
    3ff8:	2b00      	cmp	r3, #0
    3ffa:	d0fc      	beq.n	3ff6 <SerialManager_OpenWriteHandle+0xa>
    3ffc:	683b      	ldr	r3, [r7, #0]
    3ffe:	2b00      	cmp	r3, #0
    4000:	d0fc      	beq.n	3ffc <SerialManager_OpenWriteHandle+0x10>
    4002:	bf00      	nop
    4004:	687b      	ldr	r3, [r7, #4]
    4006:	617b      	str	r3, [r7, #20]
    4008:	683b      	ldr	r3, [r7, #0]
    400a:	613b      	str	r3, [r7, #16]
    400c:	f7ff ff5f 	bl	3ece <DisableGlobalIRQ>
    4010:	60f8      	str	r0, [r7, #12]
    4012:	697b      	ldr	r3, [r7, #20]
    4014:	689b      	ldr	r3, [r3, #8]
    4016:	1c5a      	adds	r2, r3, #1
    4018:	697b      	ldr	r3, [r7, #20]
    401a:	609a      	str	r2, [r3, #8]
    401c:	68f8      	ldr	r0, [r7, #12]
    401e:	f7ff ff67 	bl	3ef0 <EnableGlobalIRQ>
    4022:	2204      	movs	r2, #4
    4024:	2100      	movs	r1, #0
    4026:	6838      	ldr	r0, [r7, #0]
    4028:	f000 f933 	bl	4292 <memset>
    402c:	693b      	ldr	r3, [r7, #16]
    402e:	697a      	ldr	r2, [r7, #20]
    4030:	601a      	str	r2, [r3, #0]
    4032:	2300      	movs	r3, #0
    4034:	4618      	mov	r0, r3
    4036:	3718      	adds	r7, #24
    4038:	46bd      	mov	sp, r7
    403a:	bd80      	pop	{r7, pc}

0000403c <SerialManager_OpenReadHandle>:
    403c:	b580      	push	{r7, lr}
    403e:	b086      	sub	sp, #24
    4040:	af00      	add	r7, sp, #0
    4042:	6078      	str	r0, [r7, #4]
    4044:	6039      	str	r1, [r7, #0]
    4046:	2300      	movs	r3, #0
    4048:	82fb      	strh	r3, [r7, #22]
    404a:	687b      	ldr	r3, [r7, #4]
    404c:	2b00      	cmp	r3, #0
    404e:	d0fc      	beq.n	404a <SerialManager_OpenReadHandle+0xe>
    4050:	683b      	ldr	r3, [r7, #0]
    4052:	2b00      	cmp	r3, #0
    4054:	d0fc      	beq.n	4050 <SerialManager_OpenReadHandle+0x14>
    4056:	bf00      	nop
    4058:	687b      	ldr	r3, [r7, #4]
    405a:	613b      	str	r3, [r7, #16]
    405c:	683b      	ldr	r3, [r7, #0]
    405e:	60fb      	str	r3, [r7, #12]
    4060:	f7ff ff35 	bl	3ece <DisableGlobalIRQ>
    4064:	60b8      	str	r0, [r7, #8]
    4066:	693b      	ldr	r3, [r7, #16]
    4068:	685b      	ldr	r3, [r3, #4]
    406a:	2b00      	cmp	r3, #0
    406c:	d003      	beq.n	4076 <SerialManager_OpenReadHandle+0x3a>
    406e:	f243 5322 	movw	r3, #13602	@ 0x3522
    4072:	82fb      	strh	r3, [r7, #22]
    4074:	e00a      	b.n	408c <SerialManager_OpenReadHandle+0x50>
    4076:	693b      	ldr	r3, [r7, #16]
    4078:	68fa      	ldr	r2, [r7, #12]
    407a:	605a      	str	r2, [r3, #4]
    407c:	2204      	movs	r2, #4
    407e:	2100      	movs	r1, #0
    4080:	6838      	ldr	r0, [r7, #0]
    4082:	f000 f906 	bl	4292 <memset>
    4086:	68fb      	ldr	r3, [r7, #12]
    4088:	693a      	ldr	r2, [r7, #16]
    408a:	601a      	str	r2, [r3, #0]
    408c:	68b8      	ldr	r0, [r7, #8]
    408e:	f7ff ff2f 	bl	3ef0 <EnableGlobalIRQ>
    4092:	8afb      	ldrh	r3, [r7, #22]
    4094:	4618      	mov	r0, r3
    4096:	3718      	adds	r7, #24
    4098:	46bd      	mov	sp, r7
    409a:	bd80      	pop	{r7, pc}

0000409c <SerialManager_WriteBlocking>:
    409c:	b580      	push	{r7, lr}
    409e:	b084      	sub	sp, #16
    40a0:	af00      	add	r7, sp, #0
    40a2:	60f8      	str	r0, [r7, #12]
    40a4:	60b9      	str	r1, [r7, #8]
    40a6:	607a      	str	r2, [r7, #4]
    40a8:	687a      	ldr	r2, [r7, #4]
    40aa:	68b9      	ldr	r1, [r7, #8]
    40ac:	68f8      	ldr	r0, [r7, #12]
    40ae:	f7ff ff4b 	bl	3f48 <SerialManager_Write>
    40b2:	4603      	mov	r3, r0
    40b4:	4618      	mov	r0, r3
    40b6:	3710      	adds	r7, #16
    40b8:	46bd      	mov	sp, r7
    40ba:	bd80      	pop	{r7, pc}

000040bc <Serial_UartInit>:
    40bc:	b580      	push	{r7, lr}
    40be:	b084      	sub	sp, #16
    40c0:	af00      	add	r7, sp, #0
    40c2:	6078      	str	r0, [r7, #4]
    40c4:	6039      	str	r1, [r7, #0]
    40c6:	2300      	movs	r3, #0
    40c8:	81fb      	strh	r3, [r7, #14]
    40ca:	683b      	ldr	r3, [r7, #0]
    40cc:	2b00      	cmp	r3, #0
    40ce:	d0fc      	beq.n	40ca <Serial_UartInit+0xe>
    40d0:	687b      	ldr	r3, [r7, #4]
    40d2:	2b00      	cmp	r3, #0
    40d4:	d0fc      	beq.n	40d0 <Serial_UartInit+0x14>
    40d6:	bf00      	nop
    40d8:	687b      	ldr	r3, [r7, #4]
    40da:	60bb      	str	r3, [r7, #8]
    40dc:	68bb      	ldr	r3, [r7, #8]
    40de:	6839      	ldr	r1, [r7, #0]
    40e0:	4618      	mov	r0, r3
    40e2:	f7fd fd09 	bl	1af8 <HAL_UartInit>
    40e6:	4603      	mov	r3, r0
    40e8:	81fb      	strh	r3, [r7, #14]
    40ea:	89fb      	ldrh	r3, [r7, #14]
    40ec:	2b00      	cmp	r3, #0
    40ee:	d1fc      	bne.n	40ea <Serial_UartInit+0x2e>
    40f0:	89fb      	ldrh	r3, [r7, #14]
    40f2:	4618      	mov	r0, r3
    40f4:	3710      	adds	r7, #16
    40f6:	46bd      	mov	sp, r7
    40f8:	bd80      	pop	{r7, pc}

000040fa <Serial_UartWrite>:
    40fa:	b580      	push	{r7, lr}
    40fc:	b086      	sub	sp, #24
    40fe:	af00      	add	r7, sp, #0
    4100:	60f8      	str	r0, [r7, #12]
    4102:	60b9      	str	r1, [r7, #8]
    4104:	607a      	str	r2, [r7, #4]
    4106:	68fb      	ldr	r3, [r7, #12]
    4108:	2b00      	cmp	r3, #0
    410a:	d0fc      	beq.n	4106 <Serial_UartWrite+0xc>
    410c:	68bb      	ldr	r3, [r7, #8]
    410e:	2b00      	cmp	r3, #0
    4110:	d0fc      	beq.n	410c <Serial_UartWrite+0x12>
    4112:	687b      	ldr	r3, [r7, #4]
    4114:	2b00      	cmp	r3, #0
    4116:	d0fc      	beq.n	4112 <Serial_UartWrite+0x18>
    4118:	68fb      	ldr	r3, [r7, #12]
    411a:	617b      	str	r3, [r7, #20]
    411c:	697b      	ldr	r3, [r7, #20]
    411e:	687a      	ldr	r2, [r7, #4]
    4120:	68b9      	ldr	r1, [r7, #8]
    4122:	4618      	mov	r0, r3
    4124:	f7fd fd2a 	bl	1b7c <HAL_UartSendBlocking>
    4128:	4603      	mov	r3, r0
    412a:	4618      	mov	r0, r3
    412c:	3718      	adds	r7, #24
    412e:	46bd      	mov	sp, r7
    4130:	bd80      	pop	{r7, pc}

00004132 <CLOCK_EnableClock>:
    4132:	b480      	push	{r7}
    4134:	b085      	sub	sp, #20
    4136:	af00      	add	r7, sp, #0
    4138:	4603      	mov	r3, r0
    413a:	80fb      	strh	r3, [r7, #6]
    413c:	88fb      	ldrh	r3, [r7, #6]
    413e:	0a1b      	lsrs	r3, r3, #8
    4140:	60fb      	str	r3, [r7, #12]
    4142:	88fb      	ldrh	r3, [r7, #6]
    4144:	b2db      	uxtb	r3, r3
    4146:	60bb      	str	r3, [r7, #8]
    4148:	88fb      	ldrh	r3, [r7, #6]
    414a:	2b00      	cmp	r3, #0
    414c:	d035      	beq.n	41ba <CLOCK_EnableClock+0x88>
    414e:	68fb      	ldr	r3, [r7, #12]
    4150:	2bfa      	cmp	r3, #250	@ 0xfa
    4152:	d112      	bne.n	417a <CLOCK_EnableClock+0x48>
    4154:	f04f 4380 	mov.w	r3, #1073741824	@ 0x40000000
    4158:	f8d3 2e38 	ldr.w	r2, [r3, #3640]	@ 0xe38
    415c:	2101      	movs	r1, #1
    415e:	68bb      	ldr	r3, [r7, #8]
    4160:	fa01 f303 	lsl.w	r3, r1, r3
    4164:	f04f 4180 	mov.w	r1, #1073741824	@ 0x40000000
    4168:	4313      	orrs	r3, r2
    416a:	f8c1 3e38 	str.w	r3, [r1, #3640]	@ 0xe38
    416e:	f04f 4380 	mov.w	r3, #1073741824	@ 0x40000000
    4172:	2240      	movs	r2, #64	@ 0x40
    4174:	f8c3 222c 	str.w	r2, [r3, #556]	@ 0x22c
    4178:	e020      	b.n	41bc <CLOCK_EnableClock+0x8a>
    417a:	68fb      	ldr	r3, [r7, #12]
    417c:	2bfb      	cmp	r3, #251	@ 0xfb
    417e:	d112      	bne.n	41a6 <CLOCK_EnableClock+0x74>
    4180:	f04f 4380 	mov.w	r3, #1073741824	@ 0x40000000
    4184:	f8d3 2e3c 	ldr.w	r2, [r3, #3644]	@ 0xe3c
    4188:	2101      	movs	r1, #1
    418a:	68bb      	ldr	r3, [r7, #8]
    418c:	fa01 f303 	lsl.w	r3, r1, r3
    4190:	f04f 4180 	mov.w	r1, #1073741824	@ 0x40000000
    4194:	4313      	orrs	r3, r2
    4196:	f8c1 3e3c 	str.w	r3, [r1, #3644]	@ 0xe3c
    419a:	f04f 4380 	mov.w	r3, #1073741824	@ 0x40000000
    419e:	2280      	movs	r2, #128	@ 0x80
    41a0:	f8c3 222c 	str.w	r2, [r3, #556]	@ 0x22c
    41a4:	e00a      	b.n	41bc <CLOCK_EnableClock+0x8a>
    41a6:	f04f 4180 	mov.w	r1, #1073741824	@ 0x40000000
    41aa:	2201      	movs	r2, #1
    41ac:	68bb      	ldr	r3, [r7, #8]
    41ae:	409a      	lsls	r2, r3
    41b0:	68fb      	ldr	r3, [r7, #12]
    41b2:	3388      	adds	r3, #136	@ 0x88
    41b4:	f841 2023 	str.w	r2, [r1, r3, lsl #2]
    41b8:	e000      	b.n	41bc <CLOCK_EnableClock+0x8a>
    41ba:	bf00      	nop
    41bc:	3714      	adds	r7, #20
    41be:	46bd      	mov	sp, r7
    41c0:	f85d 7b04 	ldr.w	r7, [sp], #4
    41c4:	4770      	bx	lr

000041c6 <BOARD_InitBootClocks>:
    41c6:	b580      	push	{r7, lr}
    41c8:	af00      	add	r7, sp, #0
    41ca:	f7fd fd25 	bl	1c18 <BOARD_BootClockPLL150M>
    41ce:	bf00      	nop
    41d0:	bd80      	pop	{r7, pc}

000041d2 <BOARD_InitBootPeripherals>:
    41d2:	b480      	push	{r7}
    41d4:	af00      	add	r7, sp, #0
    41d6:	bf00      	nop
    41d8:	46bd      	mov	sp, r7
    41da:	f85d 7b04 	ldr.w	r7, [sp], #4
    41de:	4770      	bx	lr

000041e0 <CLOCK_EnableClock>:
    41e0:	b480      	push	{r7}
    41e2:	b085      	sub	sp, #20
    41e4:	af00      	add	r7, sp, #0
    41e6:	4603      	mov	r3, r0
    41e8:	80fb      	strh	r3, [r7, #6]
    41ea:	88fb      	ldrh	r3, [r7, #6]
    41ec:	0a1b      	lsrs	r3, r3, #8
    41ee:	60fb      	str	r3, [r7, #12]
    41f0:	88fb      	ldrh	r3, [r7, #6]
    41f2:	b2db      	uxtb	r3, r3
    41f4:	60bb      	str	r3, [r7, #8]
    41f6:	88fb      	ldrh	r3, [r7, #6]
    41f8:	2b00      	cmp	r3, #0
    41fa:	d035      	beq.n	4268 <CLOCK_EnableClock+0x88>
    41fc:	68fb      	ldr	r3, [r7, #12]
    41fe:	2bfa      	cmp	r3, #250	@ 0xfa
    4200:	d112      	bne.n	4228 <CLOCK_EnableClock+0x48>
    4202:	f04f 4380 	mov.w	r3, #1073741824	@ 0x40000000
    4206:	f8d3 2e38 	ldr.w	r2, [r3, #3640]	@ 0xe38
    420a:	2101      	movs	r1, #1
    420c:	68bb      	ldr	r3, [r7, #8]
    420e:	fa01 f303 	lsl.w	r3, r1, r3
    4212:	f04f 4180 	mov.w	r1, #1073741824	@ 0x40000000
    4216:	4313      	orrs	r3, r2
    4218:	f8c1 3e38 	str.w	r3, [r1, #3640]	@ 0xe38
    421c:	f04f 4380 	mov.w	r3, #1073741824	@ 0x40000000
    4220:	2240      	movs	r2, #64	@ 0x40
    4222:	f8c3 222c 	str.w	r2, [r3, #556]	@ 0x22c
    4226:	e020      	b.n	426a <CLOCK_EnableClock+0x8a>
    4228:	68fb      	ldr	r3, [r7, #12]
    422a:	2bfb      	cmp	r3, #251	@ 0xfb
    422c:	d112      	bne.n	4254 <CLOCK_EnableClock+0x74>
    422e:	f04f 4380 	mov.w	r3, #1073741824	@ 0x40000000
    4232:	f8d3 2e3c 	ldr.w	r2, [r3, #3644]	@ 0xe3c
    4236:	2101      	movs	r1, #1
    4238:	68bb      	ldr	r3, [r7, #8]
    423a:	fa01 f303 	lsl.w	r3, r1, r3
    423e:	f04f 4180 	mov.w	r1, #1073741824	@ 0x40000000
    4242:	4313      	orrs	r3, r2
    4244:	f8c1 3e3c 	str.w	r3, [r1, #3644]	@ 0xe3c
    4248:	f04f 4380 	mov.w	r3, #1073741824	@ 0x40000000
    424c:	2280      	movs	r2, #128	@ 0x80
    424e:	f8c3 222c 	str.w	r2, [r3, #556]	@ 0x22c
    4252:	e00a      	b.n	426a <CLOCK_EnableClock+0x8a>
    4254:	f04f 4180 	mov.w	r1, #1073741824	@ 0x40000000
    4258:	2201      	movs	r2, #1
    425a:	68bb      	ldr	r3, [r7, #8]
    425c:	409a      	lsls	r2, r3
    425e:	68fb      	ldr	r3, [r7, #12]
    4260:	3388      	adds	r3, #136	@ 0x88
    4262:	f841 2023 	str.w	r2, [r1, r3, lsl #2]
    4266:	e000      	b.n	426a <CLOCK_EnableClock+0x8a>
    4268:	bf00      	nop
    426a:	3714      	adds	r7, #20
    426c:	46bd      	mov	sp, r7
    426e:	f85d 7b04 	ldr.w	r7, [sp], #4
    4272:	4770      	bx	lr

00004274 <BOARD_InitBootPins>:
    4274:	b580      	push	{r7, lr}
    4276:	af00      	add	r7, sp, #0
    4278:	f7fd fd2e 	bl	1cd8 <BOARD_InitDEBUG_UARTPins>
    427c:	bf00      	nop
    427e:	bd80      	pop	{r7, pc}

00004280 <__main>:
    4280:	b508      	push	{r3, lr}
    4282:	f7fd fddb 	bl	1e3c <_initio>
    4286:	e8bd 4008 	ldmia.w	sp!, {r3, lr}
    428a:	f7fc bbff 	b.w	a8c <main>

0000428e <memcpy>:
    428e:	f000 ba16 	b.w	46be <__aeabi_memcpy>

00004292 <memset>:
    4292:	f000 ba2e 	b.w	46f2 <__aeabi_lowlevel_memset>

00004296 <free>:
    4296:	b1a8      	cbz	r0, 42c4 <free+0x2e>
    4298:	f04f 5380 	mov.w	r3, #268435456	@ 0x10000000
    429c:	f840 3c0c 	str.w	r3, [r0, #-12]
    42a0:	f850 2c04 	ldr.w	r2, [r0, #-4]
    42a4:	b172      	cbz	r2, 42c4 <free+0x2e>
    42a6:	6813      	ldr	r3, [r2, #0]
    42a8:	f1b3 5f80 	cmp.w	r3, #268435456	@ 0x10000000
    42ac:	d10a      	bne.n	42c4 <free+0x2e>
    42ae:	f850 3c08 	ldr.w	r3, [r0, #-8]
    42b2:	6851      	ldr	r1, [r2, #4]
    42b4:	3303      	adds	r3, #3
    42b6:	440b      	add	r3, r1
    42b8:	f840 3c08 	str.w	r3, [r0, #-8]
    42bc:	6893      	ldr	r3, [r2, #8]
    42be:	f840 3c04 	str.w	r3, [r0, #-4]
    42c2:	e7ed      	b.n	42a0 <free+0xa>
    42c4:	4770      	bx	lr

000042c6 <no_fp_display>:
    42c6:	2000      	movs	r0, #0
    42c8:	4770      	bx	lr

000042ca <setvbuf>:
    42ca:	b570      	push	{r4, r5, r6, lr}
    42cc:	68c4      	ldr	r4, [r0, #12]
    42ce:	07a5      	lsls	r5, r4, #30
    42d0:	d008      	beq.n	42e4 <setvbuf+0x1a>
    42d2:	f5b2 7f00 	cmp.w	r2, #512	@ 0x200
    42d6:	d011      	beq.n	42fc <setvbuf+0x32>
    42d8:	f5b2 6f80 	cmp.w	r2, #1024	@ 0x400
    42dc:	d004      	beq.n	42e8 <setvbuf+0x1e>
    42de:	f5b2 7f80 	cmp.w	r2, #256	@ 0x100
    42e2:	d00b      	beq.n	42fc <setvbuf+0x32>
    42e4:	2001      	movs	r0, #1
    42e6:	e008      	b.n	42fa <setvbuf+0x30>
    42e8:	2301      	movs	r3, #1
    42ea:	f100 0124 	add.w	r1, r0, #36	@ 0x24
    42ee:	4314      	orrs	r4, r2
    42f0:	6101      	str	r1, [r0, #16]
    42f2:	6001      	str	r1, [r0, #0]
    42f4:	61c3      	str	r3, [r0, #28]
    42f6:	60c4      	str	r4, [r0, #12]
    42f8:	2000      	movs	r0, #0
    42fa:	bd70      	pop	{r4, r5, r6, pc}
    42fc:	f06f 457f 	mvn.w	r5, #4278190080	@ 0xff000000
    4300:	1e5e      	subs	r6, r3, #1
    4302:	42ae      	cmp	r6, r5
    4304:	d3f3      	bcc.n	42ee <setvbuf+0x24>
    4306:	e7ed      	b.n	42e4 <setvbuf+0x1a>

00004308 <strcmp>:
    4308:	ea40 0301 	orr.w	r3, r0, r1
    430c:	079b      	lsls	r3, r3, #30
    430e:	b530      	push	{r4, r5, lr}
    4310:	d110      	bne.n	4334 <strcmp+0x2c>
    4312:	4605      	mov	r5, r0
    4314:	460c      	mov	r4, r1
    4316:	4621      	mov	r1, r4
    4318:	4628      	mov	r0, r5
    431a:	680a      	ldr	r2, [r1, #0]
    431c:	f855 3b04 	ldr.w	r3, [r5], #4
    4320:	3404      	adds	r4, #4
    4322:	429a      	cmp	r2, r3
    4324:	d106      	bne.n	4334 <strcmp+0x2c>
    4326:	f1a2 3301 	sub.w	r3, r2, #16843009	@ 0x1010101
    432a:	ea23 0302 	bic.w	r3, r3, r2
    432e:	f013 3f80 	tst.w	r3, #2155905152	@ 0x80808080
    4332:	d0f0      	beq.n	4316 <strcmp+0xe>
    4334:	f810 3b01 	ldrb.w	r3, [r0], #1
    4338:	f811 2b01 	ldrb.w	r2, [r1], #1
    433c:	4293      	cmp	r3, r2
    433e:	d001      	beq.n	4344 <strcmp+0x3c>
    4340:	1a98      	subs	r0, r3, r2
    4342:	bd30      	pop	{r4, r5, pc}
    4344:	2b00      	cmp	r3, #0
    4346:	d1f5      	bne.n	4334 <strcmp+0x2c>
    4348:	4618      	mov	r0, r3
    434a:	e7fa      	b.n	4342 <strcmp+0x3a>

0000434c <strlen>:
    434c:	4603      	mov	r3, r0
    434e:	b510      	push	{r4, lr}
    4350:	079a      	lsls	r2, r3, #30
    4352:	461c      	mov	r4, r3
    4354:	d115      	bne.n	4382 <strlen+0x36>
    4356:	4623      	mov	r3, r4
    4358:	f854 2b04 	ldr.w	r2, [r4], #4
    435c:	f1a2 3101 	sub.w	r1, r2, #16843009	@ 0x1010101
    4360:	ea21 0102 	bic.w	r1, r1, r2
    4364:	f011 3f80 	tst.w	r1, #2155905152	@ 0x80808080
    4368:	d0f5      	beq.n	4356 <strlen+0xa>
    436a:	b2d1      	uxtb	r1, r2
    436c:	b199      	cbz	r1, 4396 <strlen+0x4a>
    436e:	f412 4f7f 	tst.w	r2, #65280	@ 0xff00
    4372:	d00e      	beq.n	4392 <strlen+0x46>
    4374:	f412 0f7f 	tst.w	r2, #16711680	@ 0xff0000
    4378:	bf14      	ite	ne
    437a:	4623      	movne	r3, r4
    437c:	3303      	addeq	r3, #3
    437e:	3001      	adds	r0, #1
    4380:	e003      	b.n	438a <strlen+0x3e>
    4382:	461a      	mov	r2, r3
    4384:	f812 1b01 	ldrb.w	r1, [r2], #1
    4388:	b909      	cbnz	r1, 438e <strlen+0x42>
    438a:	1a18      	subs	r0, r3, r0
    438c:	bd10      	pop	{r4, pc}
    438e:	4613      	mov	r3, r2
    4390:	e7de      	b.n	4350 <strlen+0x4>
    4392:	3302      	adds	r3, #2
    4394:	e7f3      	b.n	437e <strlen+0x32>
    4396:	3301      	adds	r3, #1
    4398:	e7f1      	b.n	437e <strlen+0x32>

0000439a <_deferredlazyseek>:
    439a:	68c3      	ldr	r3, [r0, #12]
    439c:	b510      	push	{r4, lr}
    439e:	f023 0320 	bic.w	r3, r3, #32
    43a2:	6982      	ldr	r2, [r0, #24]
    43a4:	60c3      	str	r3, [r0, #12]
    43a6:	6a83      	ldr	r3, [r0, #40]	@ 0x28
    43a8:	4604      	mov	r4, r0
    43aa:	429a      	cmp	r2, r3
    43ac:	d00e      	beq.n	43cc <_deferredlazyseek+0x32>
    43ae:	f000 f8e8 	bl	4582 <_fflush>
    43b2:	68e3      	ldr	r3, [r4, #12]
    43b4:	f423 5340 	bic.w	r3, r3, #12288	@ 0x3000
    43b8:	f023 0310 	bic.w	r3, r3, #16
    43bc:	f043 0310 	orr.w	r3, r3, #16
    43c0:	60e3      	str	r3, [r4, #12]
    43c2:	6aa3      	ldr	r3, [r4, #40]	@ 0x28
    43c4:	61a3      	str	r3, [r4, #24]
    43c6:	6923      	ldr	r3, [r4, #16]
    43c8:	62e3      	str	r3, [r4, #44]	@ 0x2c
    43ca:	6023      	str	r3, [r4, #0]
    43cc:	68e3      	ldr	r3, [r4, #12]
    43ce:	f423 4380 	bic.w	r3, r3, #16384	@ 0x4000
    43d2:	f023 0340 	bic.w	r3, r3, #64	@ 0x40
    43d6:	60e3      	str	r3, [r4, #12]
    43d8:	bd10      	pop	{r4, pc}

000043da <__flsbuf>:
    43da:	68cb      	ldr	r3, [r1, #12]
    43dc:	b570      	push	{r4, r5, r6, lr}
    43de:	f423 2200 	bic.w	r2, r3, #524288	@ 0x80000
    43e2:	460c      	mov	r4, r1
    43e4:	60ca      	str	r2, [r1, #12]
    43e6:	0699      	lsls	r1, r3, #26
    43e8:	4605      	mov	r5, r0
    43ea:	d502      	bpl.n	43f2 <__flsbuf+0x18>
    43ec:	4620      	mov	r0, r4
    43ee:	f7ff ffd4 	bl	439a <_deferredlazyseek>
    43f2:	e9d4 3602 	ldrd	r3, r6, [r4, #8]
    43f6:	1c5a      	adds	r2, r3, #1
    43f8:	da10      	bge.n	441c <__flsbuf+0x42>
    43fa:	05b0      	lsls	r0, r6, #22
    43fc:	d40e      	bmi.n	441c <__flsbuf+0x42>
    43fe:	f1c3 23ff 	rsb	r3, r3, #4278255360	@ 0xff00ff00
    4402:	f503 037f 	add.w	r3, r3, #16711680	@ 0xff0000
    4406:	33fe      	adds	r3, #254	@ 0xfe
    4408:	60a3      	str	r3, [r4, #8]
    440a:	6823      	ldr	r3, [r4, #0]
    440c:	f446 3690 	orr.w	r6, r6, #73728	@ 0x12000
    4410:	1c5a      	adds	r2, r3, #1
    4412:	60e6      	str	r6, [r4, #12]
    4414:	6022      	str	r2, [r4, #0]
    4416:	701d      	strb	r5, [r3, #0]
    4418:	b2e8      	uxtb	r0, r5
    441a:	bd70      	pop	{r4, r5, r6, pc}
    441c:	f241 028a 	movw	r2, #4234	@ 0x108a
    4420:	4032      	ands	r2, r6
    4422:	2a02      	cmp	r2, #2
    4424:	d007      	beq.n	4436 <__flsbuf+0x5c>
    4426:	2300      	movs	r3, #0
    4428:	f046 0680 	orr.w	r6, r6, #128	@ 0x80
    442c:	60a3      	str	r3, [r4, #8]
    442e:	60e6      	str	r6, [r4, #12]
    4430:	f04f 30ff 	mov.w	r0, #4294967295
    4434:	e7f1      	b.n	441a <__flsbuf+0x40>
    4436:	f24a 0310 	movw	r3, #40976	@ 0xa010
    443a:	4033      	ands	r3, r6
    443c:	f5b3 4f00 	cmp.w	r3, #32768	@ 0x8000
    4440:	d10a      	bne.n	4458 <__flsbuf+0x7e>
    4442:	2100      	movs	r1, #0
    4444:	4620      	mov	r0, r4
    4446:	f7fe fbc1 	bl	2bcc <fseek>
    444a:	68e3      	ldr	r3, [r4, #12]
    444c:	0699      	lsls	r1, r3, #26
    444e:	d502      	bpl.n	4456 <__flsbuf+0x7c>
    4450:	4620      	mov	r0, r4
    4452:	f7ff ffa2 	bl	439a <_deferredlazyseek>
    4456:	68e6      	ldr	r6, [r4, #12]
    4458:	f446 3390 	orr.w	r3, r6, #73728	@ 0x12000
    445c:	f416 6f70 	tst.w	r6, #3840	@ 0xf00
    4460:	60e3      	str	r3, [r4, #12]
    4462:	d10e      	bne.n	4482 <__flsbuf+0xa8>
    4464:	6960      	ldr	r0, [r4, #20]
    4466:	f000 f964 	bl	4732 <__sys_istty>
    446a:	b300      	cbz	r0, 44ae <__flsbuf+0xd4>
    446c:	0572      	lsls	r2, r6, #21
    446e:	d51e      	bpl.n	44ae <__flsbuf+0xd4>
    4470:	f104 0324 	add.w	r3, r4, #36	@ 0x24
    4474:	6123      	str	r3, [r4, #16]
    4476:	6023      	str	r3, [r4, #0]
    4478:	2301      	movs	r3, #1
    447a:	61e3      	str	r3, [r4, #28]
    447c:	f446 3392 	orr.w	r3, r6, #74752	@ 0x12400
    4480:	60e3      	str	r3, [r4, #12]
    4482:	f413 6f10 	tst.w	r3, #2304	@ 0x900
    4486:	6822      	ldr	r2, [r4, #0]
    4488:	6926      	ldr	r6, [r4, #16]
    448a:	d026      	beq.n	44da <__flsbuf+0x100>
    448c:	6ae3      	ldr	r3, [r4, #44]	@ 0x2c
    448e:	429a      	cmp	r2, r3
    4490:	bf2c      	ite	cs
    4492:	ebc6 0102 	rsbcs	r1, r6, r2
    4496:	ebc6 0103 	rsbcc	r1, r6, r3
    449a:	b9b9      	cbnz	r1, 44cc <__flsbuf+0xf2>
    449c:	1c73      	adds	r3, r6, #1
    449e:	62e3      	str	r3, [r4, #44]	@ 0x2c
    44a0:	6023      	str	r3, [r4, #0]
    44a2:	69e3      	ldr	r3, [r4, #28]
    44a4:	1e5a      	subs	r2, r3, #1
    44a6:	60a2      	str	r2, [r4, #8]
    44a8:	6323      	str	r3, [r4, #48]	@ 0x30
    44aa:	7035      	strb	r5, [r6, #0]
    44ac:	e7b4      	b.n	4418 <__flsbuf+0x3e>
    44ae:	f44f 7080 	mov.w	r0, #256	@ 0x100
    44b2:	f7fd fcb3 	bl	1e1c <_Csys_alloc>
    44b6:	f44f 7380 	mov.w	r3, #256	@ 0x100
    44ba:	68e2      	ldr	r2, [r4, #12]
    44bc:	61e3      	str	r3, [r4, #28]
    44be:	f446 3394 	orr.w	r3, r6, #75776	@ 0x12800
    44c2:	431a      	orrs	r2, r3
    44c4:	6120      	str	r0, [r4, #16]
    44c6:	6020      	str	r0, [r4, #0]
    44c8:	60e2      	str	r2, [r4, #12]
    44ca:	e7da      	b.n	4482 <__flsbuf+0xa8>
    44cc:	4622      	mov	r2, r4
    44ce:	4630      	mov	r0, r6
    44d0:	f7fe fb28 	bl	2b24 <_Cwritebuf>
    44d4:	2800      	cmp	r0, #0
    44d6:	d0e1      	beq.n	449c <__flsbuf+0xc2>
    44d8:	e7aa      	b.n	4430 <__flsbuf+0x56>
    44da:	1c51      	adds	r1, r2, #1
    44dc:	b2ed      	uxtb	r5, r5
    44de:	6021      	str	r1, [r4, #0]
    44e0:	7015      	strb	r5, [r2, #0]
    44e2:	6ae2      	ldr	r2, [r4, #44]	@ 0x2c
    44e4:	6820      	ldr	r0, [r4, #0]
    44e6:	4290      	cmp	r0, r2
    44e8:	bf2c      	ite	cs
    44ea:	ebc6 0100 	rsbcs	r1, r6, r0
    44ee:	ebc6 0102 	rsbcc	r1, r6, r2
    44f2:	69e2      	ldr	r2, [r4, #28]
    44f4:	055b      	lsls	r3, r3, #21
    44f6:	6322      	str	r2, [r4, #48]	@ 0x30
    44f8:	d403      	bmi.n	4502 <__flsbuf+0x128>
    44fa:	2d0a      	cmp	r5, #10
    44fc:	d001      	beq.n	4502 <__flsbuf+0x128>
    44fe:	428a      	cmp	r2, r1
    4500:	dc09      	bgt.n	4516 <__flsbuf+0x13c>
    4502:	2300      	movs	r3, #0
    4504:	4622      	mov	r2, r4
    4506:	4630      	mov	r0, r6
    4508:	62e6      	str	r6, [r4, #44]	@ 0x2c
    450a:	6026      	str	r6, [r4, #0]
    450c:	60a3      	str	r3, [r4, #8]
    450e:	f7fe fb09 	bl	2b24 <_Cwritebuf>
    4512:	2800      	cmp	r0, #0
    4514:	d18c      	bne.n	4430 <__flsbuf+0x56>
    4516:	4628      	mov	r0, r5
    4518:	e77f      	b.n	441a <__flsbuf+0x40>

0000451a <_fdopen>:
    451a:	b570      	push	{r4, r5, r6, lr}
    451c:	460d      	mov	r5, r1
    451e:	4606      	mov	r6, r0
    4520:	4610      	mov	r0, r2
    4522:	4614      	mov	r4, r2
    4524:	f000 f856 	bl	45d4 <fclose>
    4528:	782b      	ldrb	r3, [r5, #0]
    452a:	2b72      	cmp	r3, #114	@ 0x72
    452c:	d017      	beq.n	455e <_fdopen+0x44>
    452e:	2b77      	cmp	r3, #119	@ 0x77
    4530:	d018      	beq.n	4564 <_fdopen+0x4a>
    4532:	2b61      	cmp	r3, #97	@ 0x61
    4534:	d123      	bne.n	457e <_fdopen+0x64>
    4536:	2308      	movs	r3, #8
    4538:	f248 0202 	movw	r2, #32770	@ 0x8002
    453c:	f815 1f01 	ldrb.w	r1, [r5, #1]!
    4540:	292b      	cmp	r1, #43	@ 0x2b
    4542:	d012      	beq.n	456a <_fdopen+0x50>
    4544:	2962      	cmp	r1, #98	@ 0x62
    4546:	d015      	beq.n	4574 <_fdopen+0x5a>
    4548:	071b      	lsls	r3, r3, #28
    454a:	60e2      	str	r2, [r4, #12]
    454c:	6166      	str	r6, [r4, #20]
    454e:	d504      	bpl.n	455a <_fdopen+0x40>
    4550:	2202      	movs	r2, #2
    4552:	2100      	movs	r1, #0
    4554:	4620      	mov	r0, r4
    4556:	f7fe fb39 	bl	2bcc <fseek>
    455a:	4620      	mov	r0, r4
    455c:	bd70      	pop	{r4, r5, r6, pc}
    455e:	2300      	movs	r3, #0
    4560:	2201      	movs	r2, #1
    4562:	e7eb      	b.n	453c <_fdopen+0x22>
    4564:	2304      	movs	r3, #4
    4566:	2202      	movs	r2, #2
    4568:	e7e8      	b.n	453c <_fdopen+0x22>
    456a:	f042 0203 	orr.w	r2, r2, #3
    456e:	f043 0302 	orr.w	r3, r3, #2
    4572:	e7e3      	b.n	453c <_fdopen+0x22>
    4574:	f042 0204 	orr.w	r2, r2, #4
    4578:	f043 0301 	orr.w	r3, r3, #1
    457c:	e7de      	b.n	453c <_fdopen+0x22>
    457e:	2400      	movs	r4, #0
    4580:	e7eb      	b.n	455a <_fdopen+0x40>

00004582 <_fflush>:
    4582:	b538      	push	{r3, r4, r5, lr}
    4584:	4604      	mov	r4, r0
    4586:	68c3      	ldr	r3, [r0, #12]
    4588:	6905      	ldr	r5, [r0, #16]
    458a:	6801      	ldr	r1, [r0, #0]
    458c:	6ac2      	ldr	r2, [r0, #44]	@ 0x2c
    458e:	f423 2000 	bic.w	r0, r3, #524288	@ 0x80000
    4592:	60e0      	str	r0, [r4, #12]
    4594:	f003 0082 	and.w	r0, r3, #130	@ 0x82
    4598:	2802      	cmp	r0, #2
    459a:	d002      	beq.n	45a2 <_fflush+0x20>
    459c:	f04f 30ff 	mov.w	r0, #4294967295
    45a0:	bd38      	pop	{r3, r4, r5, pc}
    45a2:	03db      	lsls	r3, r3, #15
    45a4:	d50c      	bpl.n	45c0 <_fflush+0x3e>
    45a6:	4291      	cmp	r1, r2
    45a8:	bf38      	it	cc
    45aa:	4611      	movcc	r1, r2
    45ac:	428d      	cmp	r5, r1
    45ae:	d109      	bne.n	45c4 <_fflush+0x42>
    45b0:	2300      	movs	r3, #0
    45b2:	60a3      	str	r3, [r4, #8]
    45b4:	68e3      	ldr	r3, [r4, #12]
    45b6:	62e5      	str	r5, [r4, #44]	@ 0x2c
    45b8:	f423 3380 	bic.w	r3, r3, #65536	@ 0x10000
    45bc:	6025      	str	r5, [r4, #0]
    45be:	60e3      	str	r3, [r4, #12]
    45c0:	2000      	movs	r0, #0
    45c2:	e7ed      	b.n	45a0 <_fflush+0x1e>
    45c4:	4622      	mov	r2, r4
    45c6:	4628      	mov	r0, r5
    45c8:	1b49      	subs	r1, r1, r5
    45ca:	f7fe faab 	bl	2b24 <_Cwritebuf>
    45ce:	2800      	cmp	r0, #0
    45d0:	d0ee      	beq.n	45b0 <_fflush+0x2e>
    45d2:	e7e3      	b.n	459c <_fflush+0x1a>

000045d4 <fclose>:
    45d4:	b5f0      	push	{r4, r5, r6, r7, lr}
    45d6:	e9d0 6704 	ldrd	r6, r7, [r0, #16]
    45da:	68c4      	ldr	r4, [r0, #12]
    45dc:	4605      	mov	r5, r0
    45de:	07a1      	lsls	r1, r4, #30
    45e0:	b089      	sub	sp, #36	@ 0x24
    45e2:	d020      	beq.n	4626 <fclose+0x52>
    45e4:	0722      	lsls	r2, r4, #28
    45e6:	d416      	bmi.n	4616 <fclose+0x42>
    45e8:	f7fe fad2 	bl	2b90 <fflush>
    45ec:	4638      	mov	r0, r7
    45ee:	f000 f89a 	bl	4726 <__sys_close>
    45f2:	0523      	lsls	r3, r4, #20
    45f4:	d502      	bpl.n	45fc <fclose+0x28>
    45f6:	4630      	mov	r0, r6
    45f8:	f7ff fe4d 	bl	4296 <free>
    45fc:	0da4      	lsrs	r4, r4, #22
    45fe:	05a4      	lsls	r4, r4, #22
    4600:	f114 4fa5 	cmn.w	r4, #1384120320	@ 0x52800000
    4604:	d107      	bne.n	4616 <fclose+0x42>
    4606:	2220      	movs	r2, #32
    4608:	4668      	mov	r0, sp
    460a:	6a29      	ldr	r1, [r5, #32]
    460c:	f000 f89a 	bl	4744 <__sys_tmpnam>
    4610:	4668      	mov	r0, sp
    4612:	f000 f80b 	bl	462c <remove>
    4616:	223c      	movs	r2, #60	@ 0x3c
    4618:	2100      	movs	r1, #0
    461a:	4628      	mov	r0, r5
    461c:	f7ff fe39 	bl	4292 <memset>
    4620:	2000      	movs	r0, #0
    4622:	b009      	add	sp, #36	@ 0x24
    4624:	bdf0      	pop	{r4, r5, r6, r7, pc}
    4626:	f04f 30ff 	mov.w	r0, #4294967295
    462a:	e7fa      	b.n	4622 <fclose+0x4e>

0000462c <remove>:
    462c:	b510      	push	{r4, lr}
    462e:	4604      	mov	r4, r0
    4630:	f7ff fe8c 	bl	434c <strlen>
    4634:	4601      	mov	r1, r0
    4636:	4620      	mov	r0, r4
    4638:	e8bd 4010 	ldmia.w	sp!, {r4, lr}
    463c:	f000 b87c 	b.w	4738 <__sys_remove>

00004640 <_do_fflush>:
    4640:	68c3      	ldr	r3, [r0, #12]
    4642:	b570      	push	{r4, r5, r6, lr}
    4644:	f013 0603 	ands.w	r6, r3, #3
    4648:	4604      	mov	r4, r0
    464a:	d011      	beq.n	4670 <_do_fflush+0x30>
    464c:	069b      	lsls	r3, r3, #26
    464e:	d511      	bpl.n	4674 <_do_fflush+0x34>
    4650:	6a85      	ldr	r5, [r0, #40]	@ 0x28
    4652:	f7ff fea2 	bl	439a <_deferredlazyseek>
    4656:	68e3      	ldr	r3, [r4, #12]
    4658:	4620      	mov	r0, r4
    465a:	f423 5340 	bic.w	r3, r3, #12288	@ 0x3000
    465e:	60e3      	str	r3, [r4, #12]
    4660:	f7ff ff8f 	bl	4582 <_fflush>
    4664:	2200      	movs	r2, #0
    4666:	4606      	mov	r6, r0
    4668:	4629      	mov	r1, r5
    466a:	4620      	mov	r0, r4
    466c:	f7fe faae 	bl	2bcc <fseek>
    4670:	4630      	mov	r0, r6
    4672:	bd70      	pop	{r4, r5, r6, pc}
    4674:	6983      	ldr	r3, [r0, #24]
    4676:	6805      	ldr	r5, [r0, #0]
    4678:	441d      	add	r5, r3
    467a:	6903      	ldr	r3, [r0, #16]
    467c:	1aed      	subs	r5, r5, r3
    467e:	e7ea      	b.n	4656 <_do_fflush+0x16>

00004680 <__aeabi_f2ulz>:
    4680:	0dc3      	lsrs	r3, r0, #23
    4682:	b530      	push	{r4, r5, lr}
    4684:	0202      	lsls	r2, r0, #8
    4686:	f1d3 049e 	rsbs	r4, r3, #158	@ 0x9e
    468a:	f042 4100 	orr.w	r1, r2, #2147483648	@ 0x80000000
    468e:	d403      	bmi.n	4698 <__aeabi_f2ulz+0x18>
    4690:	fa21 f004 	lsr.w	r0, r1, r4
    4694:	2100      	movs	r1, #0
    4696:	bd30      	pop	{r4, r5, pc}
    4698:	f1d3 05be 	rsbs	r5, r3, #190	@ 0xbe
    469c:	d404      	bmi.n	46a8 <__aeabi_f2ulz+0x28>
    469e:	4264      	negs	r4, r4
    46a0:	fa01 f004 	lsl.w	r0, r1, r4
    46a4:	40e9      	lsrs	r1, r5
    46a6:	e7f6      	b.n	4696 <__aeabi_f2ulz+0x16>
    46a8:	2bfe      	cmp	r3, #254	@ 0xfe
    46aa:	d902      	bls.n	46b2 <__aeabi_f2ulz+0x32>
    46ac:	f022 4200 	bic.w	r2, r2, #2147483648	@ 0x80000000
    46b0:	b91a      	cbnz	r2, 46ba <__aeabi_f2ulz+0x3a>
    46b2:	0fc0      	lsrs	r0, r0, #31
    46b4:	3801      	subs	r0, #1
    46b6:	4601      	mov	r1, r0
    46b8:	e7ed      	b.n	4696 <__aeabi_f2ulz+0x16>
    46ba:	2000      	movs	r0, #0
    46bc:	e7fb      	b.n	46b6 <__aeabi_f2ulz+0x36>

000046be <__aeabi_memcpy>:
    46be:	ea40 0301 	orr.w	r3, r0, r1
    46c2:	07db      	lsls	r3, r3, #31
    46c4:	4603      	mov	r3, r0
    46c6:	d40c      	bmi.n	46e2 <copy1>

000046c8 <__aeabi_memcpy4>:
    46c8:	4603      	mov	r3, r0
    46ca:	3a04      	subs	r2, #4

000046cc <copy4>:
    46cc:	bf22      	ittt	cs
    46ce:	f851 cb04 	ldrcs.w	ip, [r1], #4
    46d2:	f843 cb04 	strcs.w	ip, [r3], #4
    46d6:	f1b2 0204 	subscs.w	r2, r2, #4
    46da:	d2f7      	bcs.n	46cc <copy4>
    46dc:	3204      	adds	r2, #4
    46de:	bf08      	it	eq
    46e0:	4770      	bxeq	lr

000046e2 <copy1>:
    46e2:	3a01      	subs	r2, #1
    46e4:	bf24      	itt	cs
    46e6:	f811 cb01 	ldrbcs.w	ip, [r1], #1
    46ea:	f803 cb01 	strbcs.w	ip, [r3], #1
    46ee:	d8f8      	bhi.n	46e2 <copy1>
    46f0:	4770      	bx	lr

000046f2 <__aeabi_lowlevel_memset>:
    46f2:	4603      	mov	r3, r0
    46f4:	f013 0f03 	tst.w	r3, #3
    46f8:	d10e      	bne.n	4718 <memset1a>
    46fa:	f001 01ff 	and.w	r1, r1, #255	@ 0xff
    46fe:	ea41 2101 	orr.w	r1, r1, r1, lsl #8
    4702:	ea41 4101 	orr.w	r1, r1, r1, lsl #16

00004706 <__bhs_memset4>:
    4706:	3a04      	subs	r2, #4

00004708 <memset4>:
    4708:	bf24      	itt	cs
    470a:	f843 1b04 	strcs.w	r1, [r3], #4
    470e:	f1b2 0204 	subscs.w	r2, r2, #4
    4712:	d2f9      	bcs.n	4708 <memset4>

00004714 <memset1>:
    4714:	f102 0204 	add.w	r2, r2, #4

00004718 <memset1a>:
    4718:	3a01      	subs	r2, #1
    471a:	bf24      	itt	cs
    471c:	f803 1b01 	strbcs.w	r1, [r3], #1
    4720:	e7fa      	bcs.n	4718 <memset1a>
    4722:	4770      	bx	lr

00004724 <__sys_appexit>:
    4724:	e7fe      	b.n	4724 <__sys_appexit>

00004726 <__sys_close>:
    4726:	f04f 30ff 	mov.w	r0, #4294967295
    472a:	4770      	bx	lr

0000472c <__sys_flen>:
    472c:	f04f 30ff 	mov.w	r0, #4294967295
    4730:	4770      	bx	lr

00004732 <__sys_istty>:
    4732:	f04f 30ff 	mov.w	r0, #4294967295
    4736:	4770      	bx	lr

00004738 <__sys_remove>:
    4738:	f04f 30ff 	mov.w	r0, #4294967295
    473c:	4770      	bx	lr

0000473e <__sys_seek>:
    473e:	f04f 30ff 	mov.w	r0, #4294967295
    4742:	4770      	bx	lr

00004744 <__sys_tmpnam>:
    4744:	f04f 30ff 	mov.w	r0, #4294967295
    4748:	4770      	bx	lr

0000474a <__sys_write>:
    474a:	4610      	mov	r0, r2
    474c:	4770      	bx	lr
    474e:	ffff 5341 			@ <UNDEFINED> instruction: 0xffff5341
    4752:	4553      	.short	0x4553
    4754:	45205452 	.word	0x45205452
    4758:	524f5252 	.word	0x524f5252
    475c:	25202220 	.word	0x25202220
    4760:	000a2073 	.word	0x000a2073
    4764:	31335b1b 	.word	0x31335b1b
    4768:	6d30343b 	.word	0x6d30343b
    476c:	5252455b 	.word	0x5252455b
    4770:	205d524f 	.word	0x205d524f
    4774:	37335b1b 	.word	0x37335b1b
    4778:	6d30343b 	.word	0x6d30343b
    477c:	6e696f70 	.word	0x6e696f70
    4780:	20726574 	.word	0x20726574
    4784:	45206f74 	.word	0x45206f74
    4788:	7020485a 	.word	0x7020485a
    478c:	72676f72 	.word	0x72676f72
    4790:	69206d61 	.word	0x69206d61
    4794:	756e2073 	.word	0x756e2073
    4798:	202e6c6c 	.word	0x202e6c6c
    479c:	656c5020 	.word	0x656c5020
    47a0:	20657361 	.word	0x20657361
    47a4:	73736170 	.word	0x73736170
    47a8:	6c617620 	.word	0x6c617620
    47ac:	65206469 	.word	0x65206469
    47b0:	6220687a 	.word	0x6220687a
    47b4:	646c6975 	.word	0x646c6975
    47b8:	66207265 	.word	0x66207265
    47bc:	74636e75 	.word	0x74636e75
    47c0:	0d6e6f69 	.word	0x0d6e6f69
    47c4:	0000000a 	.word	0x0000000a
    47c8:	75620a0d 	.word	0x75620a0d
    47cc:	5f796e6e 	.word	0x5f796e6e
    47d0:	6c697562 	.word	0x6c697562
    47d4:	61702064 	.word	0x61702064
    47d8:	31207373 	.word	0x31207373
    47dc:	00000a0d 	.word	0x00000a0d
    47e0:	2d2d2d2d 	.word	0x2d2d2d2d
    47e4:	2d2d2d2d 	.word	0x2d2d2d2d
    47e8:	2d2d2d2d 	.word	0x2d2d2d2d
    47ec:	2d2d2d2d 	.word	0x2d2d2d2d
    47f0:	2d2d2d2d 	.word	0x2d2d2d2d
    47f4:	2d2d2d2d 	.word	0x2d2d2d2d
    47f8:	2d2d2d2d 	.word	0x2d2d2d2d
    47fc:	00000a0d 	.word	0x00000a0d
    4800:	75620a0d 	.word	0x75620a0d
    4804:	5f796e6e 	.word	0x5f796e6e
    4808:	6c697562 	.word	0x6c697562
    480c:	61702064 	.word	0x61702064
    4810:	32207373 	.word	0x32207373
    4814:	00000a0d 	.word	0x00000a0d
    4818:	2d2d2d2d 	.word	0x2d2d2d2d
    481c:	2d2d2d2d 	.word	0x2d2d2d2d
    4820:	2d2d2d2d 	.word	0x2d2d2d2d
    4824:	2d2d2d2d 	.word	0x2d2d2d2d
    4828:	2d2d2d2d 	.word	0x2d2d2d2d
    482c:	2d2d2d2d 	.word	0x2d2d2d2d
    4830:	2d2d2d2d 	.word	0x2d2d2d2d
    4834:	000d0a0d 	.word	0x000d0a0d
    4838:	6c410a0d 	.word	0x6c410a0d
    483c:	6f64206c 	.word	0x6f64206c
    4840:	0a0d656e 	.word	0x0a0d656e
    4844:	ffffff00 	.word	0xffffff00
    4848:	31335b1b 	.word	0x31335b1b
    484c:	6d30343b 	.word	0x6d30343b
    4850:	5252455b 	.word	0x5252455b
    4854:	205d524f 	.word	0x205d524f
    4858:	37335b1b 	.word	0x37335b1b
    485c:	6d30343b 	.word	0x6d30343b
    4860:	2074756f 	.word	0x2074756f
    4864:	7020666f 	.word	0x7020666f
    4868:	72676f72 	.word	0x72676f72
    486c:	6d206d61 	.word	0x6d206d61
    4870:	726f6d65 	.word	0x726f6d65
    4874:	20402079 	.word	0x20402079
    4878:	65646e69 	.word	0x65646e69
    487c:	64252078 	.word	0x64252078
    4880:	ff000a0d 	.word	0xff000a0d
    4884:	31335b1b 	.word	0x31335b1b
    4888:	6d30343b 	.word	0x6d30343b
    488c:	5252455b 	.word	0x5252455b
    4890:	205d524f 	.word	0x205d524f
    4894:	37335b1b 	.word	0x37335b1b
    4898:	6d30343b 	.word	0x6d30343b
    489c:	6562614c 	.word	0x6562614c
    48a0:	6e6f206c 	.word	0x6e6f206c
    48a4:	687a6520 	.word	0x687a6520
    48a8:	6f727020 	.word	0x6f727020
    48ac:	6d617267 	.word	0x6d617267
    48b0:	646e6920 	.word	0x646e6920
    48b4:	25207865 	.word	0x25207865
    48b8:	61772064 	.word	0x61772064
    48bc:	6e692073 	.word	0x6e692073
    48c0:	696c6176 	.word	0x696c6176
    48c4:	000a0d64 	.word	0x000a0d64
    48c8:	32335b1b 	.word	0x32335b1b
    48cc:	6d30343b 	.word	0x6d30343b
    48d0:	464e495b 	.word	0x464e495b
    48d4:	1b205d4f 	.word	0x1b205d4f
    48d8:	3b37335b 	.word	0x3b37335b
    48dc:	416d3034 	.word	0x416d3034
    48e0:	64656464 	.word	0x64656464
    48e4:	62616c20 	.word	0x62616c20
    48e8:	1b206c65 	.word	0x1b206c65
    48ec:	3b36335b 	.word	0x3b36335b
    48f0:	256d3034 	.word	0x256d3034
    48f4:	335b1b73 	.word	0x335b1b73
    48f8:	30343b37 	.word	0x30343b37
    48fc:	7461206d 	.word	0x7461206d
    4900:	646e6920 	.word	0x646e6920
    4904:	25207865 	.word	0x25207865
    4908:	68772064 	.word	0x68772064
    490c:	20686369 	.word	0x20686369
    4910:	6c6c6977 	.word	0x6c6c6977
    4914:	73657220 	.word	0x73657220
    4918:	65766c6f 	.word	0x65766c6f
    491c:	206f7420 	.word	0x206f7420
    4920:	36335b1b 	.word	0x36335b1b
    4924:	6d30343b 	.word	0x6d30343b
    4928:	30257830 	.word	0x30257830
    492c:	5b1b7838 	.word	0x5b1b7838
    4930:	343b3733 	.word	0x343b3733
    4934:	0d206d30 	.word	0x0d206d30
    4938:	0000000a 	.word	0x0000000a
    493c:	31335b1b 	.word	0x31335b1b
    4940:	6d30343b 	.word	0x6d30343b
    4944:	5252455b 	.word	0x5252455b
    4948:	205d524f 	.word	0x205d524f
    494c:	37335b1b 	.word	0x37335b1b
    4950:	6d30343b 	.word	0x6d30343b
    4954:	6e6e6143 	.word	0x6e6e6143
    4958:	6120746f 	.word	0x6120746f
    495c:	61206464 	.word	0x61206464
    4960:	68746f6e 	.word	0x68746f6e
    4964:	6c207265 	.word	0x6c207265
    4968:	6c656261 	.word	0x6c656261
    496c:	5542202e 	.word	0x5542202e
    4970:	5f594e4e 	.word	0x5f594e4e
    4974:	4c495542 	.word	0x4c495542
    4978:	414d5f44 	.word	0x414d5f44
    497c:	414c5f58 	.word	0x414c5f58
    4980:	534c4542 	.word	0x534c4542
    4984:	74657320 	.word	0x74657320
    4988:	206f7420 	.word	0x206f7420
    498c:	0a0d6425 	.word	0x0a0d6425
    4990:	ffffff00 	.word	0xffffff00
    4994:	32335b1b 	.word	0x32335b1b
    4998:	6d30343b 	.word	0x6d30343b
    499c:	464e495b 	.word	0x464e495b
    49a0:	1b205d4f 	.word	0x1b205d4f
    49a4:	3b37335b 	.word	0x3b37335b
    49a8:	456d3034 	.word	0x456d3034
    49ac:	534f475f 	.word	0x534f475f
    49b0:	74204255 	.word	0x74204255
    49b4:	616c206f 	.word	0x616c206f
    49b8:	206c6562 	.word	0x206c6562
    49bc:	36335b1b 	.word	0x36335b1b
    49c0:	6d30343b 	.word	0x6d30343b
    49c4:	5b1b7325 	.word	0x5b1b7325
    49c8:	343b3733 	.word	0x343b3733
    49cc:	77206d30 	.word	0x77206d30
    49d0:	206c6c69 	.word	0x206c6c69
    49d4:	6f736572 	.word	0x6f736572
    49d8:	2065766c 	.word	0x2065766c
    49dc:	61206f74 	.word	0x61206f74
    49e0:	65726464 	.word	0x65726464
    49e4:	1b207373 	.word	0x1b207373
    49e8:	3b36335b 	.word	0x3b36335b
    49ec:	306d3034 	.word	0x306d3034
    49f0:	38302578 	.word	0x38302578
    49f4:	335b1b78 	.word	0x335b1b78
    49f8:	30343b37 	.word	0x30343b37
    49fc:	7461206d 	.word	0x7461206d
    4a00:	646e6920 	.word	0x646e6920
    4a04:	25207865 	.word	0x25207865
    4a08:	000a0d64 	.word	0x000a0d64
    4a0c:	31335b1b 	.word	0x31335b1b
    4a10:	6d30343b 	.word	0x6d30343b
    4a14:	5252455b 	.word	0x5252455b
    4a18:	205d524f 	.word	0x205d524f
    4a1c:	37335b1b 	.word	0x37335b1b
    4a20:	6d30343b 	.word	0x6d30343b
    4a24:	4f475f45 	.word	0x4f475f45
    4a28:	20425553 	.word	0x20425553
    4a2c:	6f727245 	.word	0x6f727245
    4a30:	74612072 	.word	0x74612072
    4a34:	646e6920 	.word	0x646e6920
    4a38:	25207865 	.word	0x25207865
    4a3c:	6c202e64 	.word	0x6c202e64
    4a40:	6c656261 	.word	0x6c656261
    4a44:	20732520 	.word	0x20732520
    4a48:	20736177 	.word	0x20736177
    4a4c:	20746f6e 	.word	0x20746f6e
    4a50:	69666564 	.word	0x69666564
    4a54:	2064656e 	.word	0x2064656e
    4a58:	ff000a0d 	.word	0xff000a0d
    4a5c:	4e554f43 	.word	0x4e554f43
    4a60:	5f524554 	.word	0x5f524554
    4a64:	5f434e49 	.word	0x5f434e49
    4a68:	504f4f4c 	.word	0x504f4f4c
    4a6c:	ffffff00 	.word	0xffffff00
    4a70:	6c6c6548 	.word	0x6c6c6548
    4a74:	6f57206f 	.word	0x6f57206f
    4a78:	0d646c72 	.word	0x0d646c72
    4a7c:	ffff000a 	.word	0xffff000a

00004a80 <s_lpflexcommBase>:
    4a80:	40092000 40093000 40094000 40095000     . .@.0.@.@.@.P.@
    4a90:	400b4000 400b5000 400b6000 400b7000     .@.@.P.@.`.@.p.@
    4aa0:	400b8000 400b9000                       ...@...@

00004aa8 <s_lpflexcommClocks>:
    4aa8:	010c010b 010e010d 0110010f 01120111     ................
    4ab8:	01140113                                ....

00004abc <s_lpflexcommResets>:
    4abc:	0001000b 0001000c 0001000d 0001000e     ................
    4acc:	0001000f 00010010 00010011 00010012     ................
    4adc:	00010013 00010014 5f6c7366 6c66706c     ........fsl_lpfl
    4aec:	6f637865 632e6d6d 3333313a 70203a20     excomm.c:133 : p
    4afc:	70697265 3d3c2068 5f504c20 58454c46     eriph <= LP_FLEX
    4b0c:	4d4d4f43 5245505f 5f485049 3249504c     COMM_PERIPH_LPI2
    4b1c:	646e4143 4155504c ff005452 5f6c7366     CAndLPUART..fsl_
    4b2c:	6c66706c 6f637865 632e6d6d 3536313a     lpflexcomm.c:165
    4b3c:	69203a20 6174736e 2065636e 7528203c      : instance < (u
    4b4c:	33746e69 29745f32 41525241 49535f59     int32_t)ARRAY_SI
    4b5c:	7328455a 66706c5f 6378656c 426d6d6f     ZE(s_lpflexcommB
    4b6c:	29657361 ffffff00                       ase)....

00004b74 <s_lpuartBases>:
    4b74:	40092000 40093000 40094000 40095000     . .@.0.@.@.@.P.@
    4b84:	400b4000 400b5000 400b6000 400b7000     .@.@.P.@.`.@.p.@
    4b94:	400b8000 400b9000 5f6c7366 6175706c     ...@...@fsl_lpua
    4ba4:	632e7472 3033313a 69203a20 6174736e     rt.c:130 : insta
    4bb4:	2065636e 5241203c 5f594152 455a4953     nce < ARRAY_SIZE
    4bc4:	6c5f7328 72617570 73614274 00297365     (s_lpuartBases).
    4bd4:	5f6c7366 6175706c 632e7472 3437323a     fsl_lpuart.c:274
    4be4:	4e203a20 204c4c55 63203d21 69666e6f      : NULL != confi
    4bf4:	00000067 5f6c7366 6175706c 632e7472     g...fsl_lpuart.c
    4c04:	3537323a 30203a20 203c2055 666e6f63     :275 : 0U < conf
    4c14:	3e2d6769 64756162 65746152 7370425f     ig->baudRate_Bps
    4c24:	00000000 5f6c7366 6175706c 632e7472     ....fsl_lpuart.c
    4c34:	3737323a 28203a20 746e6975 29745f38     :277 : (uint8_t)
    4c44:	5f4c5346 54414546 5f455255 4155504c     FSL_FEATURE_LPUA
    4c54:	465f5452 5f4f4649 455a4953 6162286e     RT_FIFO_SIZEn(ba
    4c64:	20296573 6f63203e 6769666e 78743e2d     se) > config->tx
    4c74:	6f666946 65746157 72616d72 0000006b     FifoWatermark...
    4c84:	5f6c7366 6175706c 632e7472 3837323a     fsl_lpuart.c:278
    4c94:	28203a20 746e6975 29745f38 5f4c5346      : (uint8_t)FSL_
    4ca4:	54414546 5f455255 4155504c 465f5452     FEATURE_LPUART_F
    4cb4:	5f4f4649 455a4953 6162286e 20296573     IFO_SIZEn(base) 
    4cc4:	6f63203e 6769666e 78723e2d 6f666946     > config->rxFifo
    4cd4:	65746157 72616d72 ffff006b 5f6c7366     Watermark...fsl_
    4ce4:	6175706c 632e7472 3836353a 4e203a20     lpuart.c:568 : N
    4cf4:	204c4c55 63203d21 69666e6f ffff0067     ULL != config...
    4d04:	5f6c7366 6175706c 632e7472 3330313a     fsl_lpuart.c:103
    4d14:	203a2034 4c4c554e 203d2120 61746164     4 : NULL != data
    4d24:	ffffff00 5f6c7366 65736572 3a632e74     ....fsl_reset.c:
    4d34:	3a203834 74696220 20736f50 3233203c     48 : bitPos < 32
    4d44:	ffff0075 5f6c7366 65736572 3a632e74     u...fsl_reset.c:
    4d54:	3a203537 74696220 20736f50 3233203c     75 : bitPos < 32
    4d64:	ffff0075                                u...

00004d68 <s_LpuartAdapterBase>:
    4d68:	40092000 40093000 40094000 40095000     . .@.0.@.@.@.P.@
    4d78:	400b4000 400b5000 400b6000 400b7000     .@.@.P.@.`.@.p.@
    4d88:	400b8000 400b9000 5f6c7366 70616461     ...@...@fsl_adap
    4d98:	5f726574 6175706c 632e7472 3839363a     ter_lpuart.c:698
    4da8:	4e203a20 204c4c55 68203d21 6c646e61      : NULL != handl
    4db8:	00000065 5f6c7366 70616461 5f726574     e...fsl_adapter_
    4dc8:	6175706c 632e7472 3939363a 4e203a20     lpuart.c:699 : N
    4dd8:	204c4c55 75203d21 5f747261 666e6f63     ULL != uart_conf
    4de8:	00006769 5f6c7366 70616461 5f726574     ig..fsl_adapter_
    4df8:	6175706c 632e7472 3030373a 75203a20     lpuart.c:700 : u
    4e08:	5f747261 666e6f63 3e2d6769 74736e69     art_config->inst
    4e18:	65636e61 28203c20 657a6973 7328666f     ance < (sizeof(s
    4e28:	75704c5f 41747261 74706164 61427265     _LpuartAdapterBa
    4e38:	20296573 6973202f 666f657a 55504c28     se) / sizeof(LPU
    4e48:	5f545241 65707954 29292a20 00000000     ART_Type *))....
    4e58:	5f6c7366 70616461 5f726574 6175706c     fsl_adapter_lpua
    4e68:	632e7472 3130373a 4e203a20 204c4c55     rt.c:701 : NULL 
    4e78:	73203d21 75704c5f 41747261 74706164     != s_LpuartAdapt
    4e88:	61427265 755b6573 5f747261 666e6f63     erBase[uart_conf
    4e98:	3e2d6769 74736e69 65636e61 ffff005d     ig->instance]...
    4ea8:	5f6c7366 70616461 5f726574 6175706c     fsl_adapter_lpua
    4eb8:	632e7472 3339373a 4e203a20 204c4c55     rt.c:793 : NULL 
    4ec8:	68203d21 6c646e61 00000065 5f6c7366     != handle...fsl_
    4ed8:	70616461 5f726574 6175706c 632e7472     adapter_lpuart.c
    4ee8:	3439373a 4e203a20 204c4c55 64203d21     :794 : NULL != d
    4ef8:	00617461 5f6c7366 70616461 5f726574     ata.fsl_adapter_
    4f08:	6175706c 632e7472 3539373a 6c203a20     lpuart.c:795 : l
    4f18:	74676e65 203e2068 ff005530 555c3a43     ength > 0U..C:\U
    4f28:	73726573 72654a5c 445c7972 746b7365     sers\Jerry\Deskt
    4f38:	575c706f 6e657661 65626d75 75625c72     op\Wavenumber\bu
    4f48:	5f796e6e 6c697562 75625c64 5f796e6e     nny_build\bunny_
    4f58:	6c697562 65745c64 6d5c7473 34397863     build\test\mcx94
    4f68:	655f5f37 345f687a 5f746962 6e756f63     7__ezh_4bit_coun
    4f78:	5c726574 76697264 2f737265 5f6c7366     ter\drivers/fsl_
    4f88:	74726f70 333a682e 3a203735 6e6f6320     port.h:357 : con
    4f98:	00676966                                fig.

00004f9c <__num_Ciob_streams>:
    4f9c:	00000003 202a2a2a 7973435f 6c615f73     ....*** _Csys_al
    4fac:	20636f6c 6c696166 000a6465 00770072     loc failed..r.w.
    4fbc:	6c756e28 3000296c 78300058 2d003000     (null).0X.0x.0.-
    4fcc:	20002b00 32313000 36353433 41393837     .+. .0123456789A
    4fdc:	45444342 31300046 35343332 39383736     BCDEF.0123456789
    4fec:	64636261 ff006665                       abcdef..
